FUN_00493d10:
00493D10  8B 81 F7 06 00 00         MOV EAX,dword ptr [ECX + 0x6f7]
00493D16  48                        DEC EAX
00493D17  83 F8 27                  CMP EAX,0x27
00493D1A  0F 87 AF 02 00 00         JA 0x00493fcf
switchD_00493d20::switchD:
00493D20  FF 24 85 E0 3F 49 00      JMP dword ptr [EAX*0x4 + 0x493fe0]
switchD_00493d20::caseD_1:
00493D27  8B 11                     MOV EDX,dword ptr [ECX]
00493D29  B8 CA 00 00 00            MOV EAX,0xca
00493D2E  50                        PUSH EAX
00493D2F  6A 04                     PUSH 0x4
00493D31  FF 92 90 00 00 00         CALL dword ptr [EDX + 0x90]
00493D37  C3                        RET
switchD_00493d20::caseD_2:
00493D38  8B 11                     MOV EDX,dword ptr [ECX]
00493D3A  B8 D0 00 00 00            MOV EAX,0xd0
00493D3F  50                        PUSH EAX
00493D40  6A 04                     PUSH 0x4
00493D42  FF 92 90 00 00 00         CALL dword ptr [EDX + 0x90]
00493D48  C3                        RET
switchD_00493d20::caseD_3:
00493D49  8B 11                     MOV EDX,dword ptr [ECX]
00493D4B  B8 D6 00 00 00            MOV EAX,0xd6
00493D50  50                        PUSH EAX
00493D51  6A 04                     PUSH 0x4
00493D53  FF 92 90 00 00 00         CALL dword ptr [EDX + 0x90]
00493D59  C3                        RET
switchD_00493d20::caseD_4:
00493D5A  8B 11                     MOV EDX,dword ptr [ECX]
00493D5C  B8 DC 00 00 00            MOV EAX,0xdc
00493D61  50                        PUSH EAX
00493D62  6A 04                     PUSH 0x4
00493D64  FF 92 90 00 00 00         CALL dword ptr [EDX + 0x90]
00493D6A  C3                        RET
switchD_00493d20::caseD_5:
00493D6B  8B 11                     MOV EDX,dword ptr [ECX]
00493D6D  B8 E2 00 00 00            MOV EAX,0xe2
00493D72  50                        PUSH EAX
00493D73  6A 04                     PUSH 0x4
00493D75  FF 92 90 00 00 00         CALL dword ptr [EDX + 0x90]
00493D7B  C3                        RET
switchD_00493d20::caseD_6:
00493D7C  8B 11                     MOV EDX,dword ptr [ECX]
00493D7E  B8 E9 00 00 00            MOV EAX,0xe9
00493D83  50                        PUSH EAX
00493D84  6A 04                     PUSH 0x4
00493D86  FF 92 90 00 00 00         CALL dword ptr [EDX + 0x90]
00493D8C  C3                        RET
switchD_00493d20::caseD_7:
00493D8D  8B 11                     MOV EDX,dword ptr [ECX]
00493D8F  B8 F0 00 00 00            MOV EAX,0xf0
00493D94  50                        PUSH EAX
00493D95  6A 04                     PUSH 0x4
00493D97  FF 92 90 00 00 00         CALL dword ptr [EDX + 0x90]
00493D9D  C3                        RET
switchD_00493d20::caseD_8:
00493D9E  8B 11                     MOV EDX,dword ptr [ECX]
00493DA0  B8 F7 00 00 00            MOV EAX,0xf7
00493DA5  50                        PUSH EAX
00493DA6  6A 04                     PUSH 0x4
00493DA8  FF 92 90 00 00 00         CALL dword ptr [EDX + 0x90]
00493DAE  C3                        RET
switchD_00493d20::caseD_9:
00493DAF  8B 11                     MOV EDX,dword ptr [ECX]
00493DB1  B8 FF 00 00 00            MOV EAX,0xff
00493DB6  50                        PUSH EAX
00493DB7  6A 04                     PUSH 0x4
00493DB9  FF 92 90 00 00 00         CALL dword ptr [EDX + 0x90]
00493DBF  C3                        RET
switchD_00493d20::caseD_a:
00493DC0  8B 11                     MOV EDX,dword ptr [ECX]
00493DC2  B8 04 01 00 00            MOV EAX,0x104
00493DC7  50                        PUSH EAX
00493DC8  6A 04                     PUSH 0x4
00493DCA  FF 92 90 00 00 00         CALL dword ptr [EDX + 0x90]
00493DD0  C3                        RET
switchD_00493d20::caseD_b:
00493DD1  8B 11                     MOV EDX,dword ptr [ECX]
00493DD3  B8 0A 01 00 00            MOV EAX,0x10a
00493DD8  50                        PUSH EAX
00493DD9  6A 04                     PUSH 0x4
00493DDB  FF 92 90 00 00 00         CALL dword ptr [EDX + 0x90]
00493DE1  C3                        RET
switchD_00493d20::caseD_c:
00493DE2  8B 11                     MOV EDX,dword ptr [ECX]
00493DE4  B8 10 01 00 00            MOV EAX,0x110
00493DE9  50                        PUSH EAX
00493DEA  6A 04                     PUSH 0x4
00493DEC  FF 92 90 00 00 00         CALL dword ptr [EDX + 0x90]
00493DF2  C3                        RET
switchD_00493d20::caseD_d:
00493DF3  8B 11                     MOV EDX,dword ptr [ECX]
00493DF5  B8 2E 01 00 00            MOV EAX,0x12e
00493DFA  50                        PUSH EAX
00493DFB  6A 04                     PUSH 0x4
00493DFD  FF 92 90 00 00 00         CALL dword ptr [EDX + 0x90]
00493E03  C3                        RET
switchD_00493d20::caseD_e:
00493E04  8B 11                     MOV EDX,dword ptr [ECX]
00493E06  B8 34 01 00 00            MOV EAX,0x134
00493E0B  50                        PUSH EAX
00493E0C  6A 04                     PUSH 0x4
00493E0E  FF 92 90 00 00 00         CALL dword ptr [EDX + 0x90]
00493E14  C3                        RET
switchD_00493d20::caseD_f:
00493E15  8B 11                     MOV EDX,dword ptr [ECX]
00493E17  B8 3A 01 00 00            MOV EAX,0x13a
00493E1C  50                        PUSH EAX
00493E1D  6A 04                     PUSH 0x4
00493E1F  FF 92 90 00 00 00         CALL dword ptr [EDX + 0x90]
00493E25  C3                        RET
switchD_00493d20::caseD_10:
00493E26  8B 11                     MOV EDX,dword ptr [ECX]
00493E28  B8 40 01 00 00            MOV EAX,0x140
00493E2D  50                        PUSH EAX
00493E2E  6A 04                     PUSH 0x4
00493E30  FF 92 90 00 00 00         CALL dword ptr [EDX + 0x90]
00493E36  C3                        RET
switchD_00493d20::caseD_11:
00493E37  8B 11                     MOV EDX,dword ptr [ECX]
00493E39  B8 46 01 00 00            MOV EAX,0x146
00493E3E  50                        PUSH EAX
00493E3F  6A 04                     PUSH 0x4
00493E41  FF 92 90 00 00 00         CALL dword ptr [EDX + 0x90]
00493E47  C3                        RET
switchD_00493d20::caseD_12:
00493E48  8B 11                     MOV EDX,dword ptr [ECX]
00493E4A  B8 4D 01 00 00            MOV EAX,0x14d
00493E4F  50                        PUSH EAX
00493E50  6A 04                     PUSH 0x4
00493E52  FF 92 90 00 00 00         CALL dword ptr [EDX + 0x90]
00493E58  C3                        RET
switchD_00493d20::caseD_13:
00493E59  8B 11                     MOV EDX,dword ptr [ECX]
00493E5B  B8 54 01 00 00            MOV EAX,0x154
00493E60  50                        PUSH EAX
00493E61  6A 04                     PUSH 0x4
00493E63  FF 92 90 00 00 00         CALL dword ptr [EDX + 0x90]
00493E69  C3                        RET
switchD_00493d20::caseD_14:
00493E6A  8B 11                     MOV EDX,dword ptr [ECX]
00493E6C  B8 5B 01 00 00            MOV EAX,0x15b
00493E71  50                        PUSH EAX
00493E72  6A 04                     PUSH 0x4
00493E74  FF 92 90 00 00 00         CALL dword ptr [EDX + 0x90]
00493E7A  C3                        RET
switchD_00493d20::caseD_15:
00493E7B  8B 11                     MOV EDX,dword ptr [ECX]
00493E7D  B8 63 01 00 00            MOV EAX,0x163
00493E82  50                        PUSH EAX
00493E83  6A 04                     PUSH 0x4
00493E85  FF 92 90 00 00 00         CALL dword ptr [EDX + 0x90]
00493E8B  C3                        RET
switchD_00493d20::caseD_16:
00493E8C  8B 11                     MOV EDX,dword ptr [ECX]
00493E8E  B8 68 01 00 00            MOV EAX,0x168
00493E93  50                        PUSH EAX
00493E94  6A 04                     PUSH 0x4
00493E96  FF 92 90 00 00 00         CALL dword ptr [EDX + 0x90]
00493E9C  C3                        RET
switchD_00493d20::caseD_17:
00493E9D  8B 11                     MOV EDX,dword ptr [ECX]
00493E9F  B8 70 01 00 00            MOV EAX,0x170
00493EA4  50                        PUSH EAX
00493EA5  6A 04                     PUSH 0x4
00493EA7  FF 92 90 00 00 00         CALL dword ptr [EDX + 0x90]
00493EAD  C3                        RET
switchD_00493d20::caseD_18:
00493EAE  8B 11                     MOV EDX,dword ptr [ECX]
00493EB0  B8 76 01 00 00            MOV EAX,0x176
00493EB5  50                        PUSH EAX
00493EB6  6A 04                     PUSH 0x4
00493EB8  FF 92 90 00 00 00         CALL dword ptr [EDX + 0x90]
00493EBE  C3                        RET
switchD_00493d20::caseD_19:
00493EBF  8B 11                     MOV EDX,dword ptr [ECX]
00493EC1  B8 92 01 00 00            MOV EAX,0x192
00493EC6  50                        PUSH EAX
00493EC7  6A 04                     PUSH 0x4
00493EC9  FF 92 90 00 00 00         CALL dword ptr [EDX + 0x90]
00493ECF  C3                        RET
switchD_00493d20::caseD_1a:
00493ED0  8B 11                     MOV EDX,dword ptr [ECX]
00493ED2  B8 9A 01 00 00            MOV EAX,0x19a
00493ED7  50                        PUSH EAX
00493ED8  6A 04                     PUSH 0x4
00493EDA  FF 92 90 00 00 00         CALL dword ptr [EDX + 0x90]
00493EE0  C3                        RET
switchD_00493d20::caseD_1b:
00493EE1  8B 11                     MOV EDX,dword ptr [ECX]
00493EE3  B8 A2 01 00 00            MOV EAX,0x1a2
00493EE8  50                        PUSH EAX
00493EE9  6A 04                     PUSH 0x4
00493EEB  FF 92 90 00 00 00         CALL dword ptr [EDX + 0x90]
00493EF1  C3                        RET
switchD_00493d20::caseD_1c:
00493EF2  8B 11                     MOV EDX,dword ptr [ECX]
00493EF4  B8 A8 01 00 00            MOV EAX,0x1a8
00493EF9  50                        PUSH EAX
00493EFA  6A 04                     PUSH 0x4
00493EFC  FF 92 90 00 00 00         CALL dword ptr [EDX + 0x90]
00493F02  C3                        RET
switchD_00493d20::caseD_1d:
00493F03  8B 11                     MOV EDX,dword ptr [ECX]
00493F05  B8 AE 01 00 00            MOV EAX,0x1ae
00493F0A  50                        PUSH EAX
00493F0B  6A 04                     PUSH 0x4
00493F0D  FF 92 90 00 00 00         CALL dword ptr [EDX + 0x90]
00493F13  C3                        RET
switchD_00493d20::caseD_1e:
00493F14  8B 11                     MOV EDX,dword ptr [ECX]
00493F16  B8 B5 01 00 00            MOV EAX,0x1b5
00493F1B  50                        PUSH EAX
00493F1C  6A 04                     PUSH 0x4
00493F1E  FF 92 90 00 00 00         CALL dword ptr [EDX + 0x90]
00493F24  C3                        RET
switchD_00493d20::caseD_1f:
00493F25  8B 11                     MOV EDX,dword ptr [ECX]
00493F27  B8 BB 01 00 00            MOV EAX,0x1bb
00493F2C  50                        PUSH EAX
00493F2D  6A 04                     PUSH 0x4
00493F2F  FF 92 90 00 00 00         CALL dword ptr [EDX + 0x90]
00493F35  C3                        RET
switchD_00493d20::caseD_20:
00493F36  8B 11                     MOV EDX,dword ptr [ECX]
00493F38  B8 C1 01 00 00            MOV EAX,0x1c1
00493F3D  50                        PUSH EAX
00493F3E  6A 04                     PUSH 0x4
00493F40  FF 92 90 00 00 00         CALL dword ptr [EDX + 0x90]
00493F46  C3                        RET
switchD_00493d20::caseD_21:
00493F47  8B 11                     MOV EDX,dword ptr [ECX]
00493F49  B8 C7 01 00 00            MOV EAX,0x1c7
00493F4E  50                        PUSH EAX
00493F4F  6A 04                     PUSH 0x4
00493F51  FF 92 90 00 00 00         CALL dword ptr [EDX + 0x90]
00493F57  C3                        RET
switchD_00493d20::caseD_22:
00493F58  8B 11                     MOV EDX,dword ptr [ECX]
00493F5A  B8 CE 01 00 00            MOV EAX,0x1ce
00493F5F  50                        PUSH EAX
00493F60  6A 04                     PUSH 0x4
00493F62  FF 92 90 00 00 00         CALL dword ptr [EDX + 0x90]
00493F68  C3                        RET
switchD_00493d20::caseD_23:
00493F69  8B 11                     MOV EDX,dword ptr [ECX]
00493F6B  B8 D5 01 00 00            MOV EAX,0x1d5
00493F70  50                        PUSH EAX
00493F71  6A 04                     PUSH 0x4
00493F73  FF 92 90 00 00 00         CALL dword ptr [EDX + 0x90]
00493F79  C3                        RET
switchD_00493d20::caseD_24:
00493F7A  8B 11                     MOV EDX,dword ptr [ECX]
00493F7C  B8 DB 01 00 00            MOV EAX,0x1db
00493F81  50                        PUSH EAX
00493F82  6A 04                     PUSH 0x4
00493F84  FF 92 90 00 00 00         CALL dword ptr [EDX + 0x90]
00493F8A  C3                        RET
switchD_00493d20::caseD_25:
00493F8B  8B 11                     MOV EDX,dword ptr [ECX]
00493F8D  B8 7C 01 00 00            MOV EAX,0x17c
00493F92  50                        PUSH EAX
00493F93  6A 04                     PUSH 0x4
00493F95  FF 92 90 00 00 00         CALL dword ptr [EDX + 0x90]
00493F9B  C3                        RET
switchD_00493d20::caseD_26:
00493F9C  8B 11                     MOV EDX,dword ptr [ECX]
00493F9E  B8 16 01 00 00            MOV EAX,0x116
00493FA3  50                        PUSH EAX
00493FA4  6A 04                     PUSH 0x4
00493FA6  FF 92 90 00 00 00         CALL dword ptr [EDX + 0x90]
00493FAC  C3                        RET
switchD_00493d20::caseD_27:
00493FAD  8B 11                     MOV EDX,dword ptr [ECX]
00493FAF  B8 82 01 00 00            MOV EAX,0x182
00493FB4  50                        PUSH EAX
00493FB5  6A 04                     PUSH 0x4
00493FB7  FF 92 90 00 00 00         CALL dword ptr [EDX + 0x90]
00493FBD  C3                        RET
switchD_00493d20::caseD_28:
00493FBE  8B 11                     MOV EDX,dword ptr [ECX]
00493FC0  B8 E1 01 00 00            MOV EAX,0x1e1
00493FC5  50                        PUSH EAX
00493FC6  6A 04                     PUSH 0x4
00493FC8  FF 92 90 00 00 00         CALL dword ptr [EDX + 0x90]
00493FCE  C3                        RET
switchD_00493d20::default:
00493FCF  8B 11                     MOV EDX,dword ptr [ECX]
00493FD1  33 C0                     XOR EAX,EAX
00493FD3  50                        PUSH EAX
00493FD4  6A 04                     PUSH 0x4
00493FD6  FF 92 90 00 00 00         CALL dword ptr [EDX + 0x90]
00493FDC  C3                        RET
