TLOBaseTy::FUN_004e2c30:
004E2C30  55                        PUSH EBP
004E2C31  8B EC                     MOV EBP,ESP
004E2C33  83 EC 5C                  SUB ESP,0x5c
004E2C36  53                        PUSH EBX
004E2C37  8B D9                     MOV EBX,ECX
004E2C39  8B 0D 74 A1 7F 00         MOV ECX,dword ptr [0x007fa174]
004E2C3F  56                        PUSH ESI
004E2C40  8B 75 08                  MOV ESI,dword ptr [EBP + 0x8]
004E2C43  8B 43 24                  MOV EAX,dword ptr [EBX + 0x24]
004E2C46  57                        PUSH EDI
004E2C47  56                        PUSH ESI
004E2C48  50                        PUSH EAX
004E2C49  E8 BF 26 F2 FF            CALL 0x0040530d
004E2C4E  8B 4B 24                  MOV ECX,dword ptr [EBX + 0x24]
004E2C51  56                        PUSH ESI
004E2C52  51                        PUSH ECX
004E2C53  8B 0D 74 A1 7F 00         MOV ECX,dword ptr [0x007fa174]
004E2C59  8B F8                     MOV EDI,EAX
004E2C5B  E8 0B EC F1 FF            CALL 0x0040186b
004E2C60  3B C7                     CMP EAX,EDI
004E2C62  0F 8D 7C 03 00 00         JGE 0x004e2fe4
004E2C68  6A 0C                     PUSH 0xc
004E2C6A  8D 8B D5 01 00 00         LEA ECX,[EBX + 0x1d5]
004E2C70  E8 3A 16 F2 FF            CALL 0x004042af
004E2C75  8B 93 F5 01 00 00         MOV EDX,dword ptr [EBX + 0x1f5]
004E2C7B  3B 82 C4 01 00 00         CMP EAX,dword ptr [EDX + 0x1c4]
004E2C81  0F 85 7F 03 00 00         JNZ 0x004e3006
004E2C87  8B 43 24                  MOV EAX,dword ptr [EBX + 0x24]
004E2C8A  8B 0D 74 A1 7F 00         MOV ECX,dword ptr [0x007fa174]
004E2C90  56                        PUSH ESI
004E2C91  50                        PUSH EAX
004E2C92  E8 D4 EB F1 FF            CALL 0x0040186b
004E2C97  8B 53 24                  MOV EDX,dword ptr [EBX + 0x24]
004E2C9A  89 45 F4                  MOV dword ptr [EBP + -0xc],EAX
004E2C9D  8D 7D D8                  LEA EDI,[EBP + -0x28]
004E2CA0  8D 0C 92                  LEA ECX,[EDX + EDX*0x4]
004E2CA3  8D 04 CA                  LEA EAX,[EDX + ECX*0x8]
004E2CA6  B9 05 00 00 00            MOV ECX,0x5
004E2CAB  8D 04 42                  LEA EAX,[EDX + EAX*0x2]
004E2CAE  C1 E0 04                  SHL EAX,0x4
004E2CB1  03 C2                     ADD EAX,EDX
004E2CB3  D1 E0                     SHL EAX,0x1
004E2CB5  8D B0 0B 51 7F 00         LEA ESI,[EAX + 0x7f510b]
004E2CBB  F3 A5                     MOVSD.REP ES:EDI,ESI
004E2CBD  B9 05 00 00 00            MOV ECX,0x5
004E2CC2  8D B0 1F 51 7F 00         LEA ESI,[EAX + 0x7f511f]
004E2CC8  8D 7D C4                  LEA EDI,[EBP + -0x3c]
004E2CCB  F3 A5                     MOVSD.REP ES:EDI,ESI
004E2CCD  8B 4D F4                  MOV ECX,dword ptr [EBP + -0xc]
004E2CD0  8B 75 08                  MOV ESI,dword ptr [EBP + 0x8]
004E2CD3  41                        INC ECX
004E2CD4  51                        PUSH ECX
004E2CD5  8B 0D 74 A1 7F 00         MOV ECX,dword ptr [0x007fa174]
004E2CDB  56                        PUSH ESI
004E2CDC  52                        PUSH EDX
004E2CDD  E8 4E F4 F1 FF            CALL 0x00402130
004E2CE2  8B 53 24                  MOV EDX,dword ptr [EBX + 0x24]
004E2CE5  8B 0D 74 A1 7F 00         MOV ECX,dword ptr [0x007fa174]
004E2CEB  56                        PUSH ESI
004E2CEC  52                        PUSH EDX
004E2CED  E8 74 F0 F1 FF            CALL 0x00401d66
004E2CF2  A1 BC 17 81 00            MOV EAX,[0x008117bc]
004E2CF7  85 C0                     TEST EAX,EAX
004E2CF9  0F 84 63 01 00 00         JZ 0x004e2e62
004E2CFF  8B 53 24                  MOV EDX,dword ptr [EBX + 0x24]
004E2D02  B9 08 00 00 00            MOV ECX,0x8
004E2D07  33 C0                     XOR EAX,EAX
004E2D09  8D 7D A4                  LEA EDI,[EBP + -0x5c]
004E2D0C  F3 AB                     STOSD.REP ES:EDI
004E2D0E  66 8B 4B 32               MOV CX,word ptr [EBX + 0x32]
004E2D12  66 8B 43 24               MOV AX,word ptr [EBX + 0x24]
004E2D16  66 89 4D BA               MOV word ptr [EBP + -0x46],CX
004E2D1A  8B 0D 74 A1 7F 00         MOV ECX,dword ptr [0x007fa174]
004E2D20  56                        PUSH ESI
004E2D21  52                        PUSH EDX
004E2D22  C7 45 B4 E7 5D 00 00      MOV dword ptr [EBP + -0x4c],0x5de7
004E2D29  66 89 45 B8               MOV word ptr [EBP + -0x48],AX
004E2D2D  66 89 75 BC               MOV word ptr [EBP + -0x44],SI
004E2D31  E8 35 EB F1 FF            CALL 0x0040186b
004E2D36  8B 0D BC 17 81 00         MOV ECX,dword ptr [0x008117bc]
004E2D3C  66 89 45 BE               MOV word ptr [EBP + -0x42],AX
004E2D40  8D 55 A4                  LEA EDX,[EBP + -0x5c]
004E2D43  8B 01                     MOV EAX,dword ptr [ECX]
004E2D45  52                        PUSH EDX
004E2D46  FF 10                     CALL dword ptr [EAX]
004E2D48  B9 08 00 00 00            MOV ECX,0x8
004E2D4D  33 C0                     XOR EAX,EAX
004E2D4F  8D 7D A4                  LEA EDI,[EBP + -0x5c]
004E2D52  F3 AB                     STOSD.REP ES:EDI
004E2D54  66 8B 43 24               MOV AX,word ptr [EBX + 0x24]
004E2D58  33 FF                     XOR EDI,EDI
004E2D5A  8D 4D D8                  LEA ECX,[EBP + -0x28]
004E2D5D  C7 45 B4 EA 5D 00 00      MOV dword ptr [EBP + -0x4c],0x5dea
004E2D64  66 89 45 B8               MOV word ptr [EBP + -0x48],AX
004E2D68  89 7D F4                  MOV dword ptr [EBP + -0xc],EDI
004E2D6B  89 4D F0                  MOV dword ptr [EBP + -0x10],ECX
LAB_004e2d6e:
004E2D6E  8B 55 F4                  MOV EDX,dword ptr [EBP + -0xc]
004E2D71  8B 4D F0                  MOV ECX,dword ptr [EBP + -0x10]
004E2D74  80 F2 07                  XOR DL,0x7
004E2D77  33 C0                     XOR EAX,EAX
004E2D79  0F A3 11                  BT [ECX],EDX
004E2D7C  D0 D0                     RCL AL,0x1
004E2D7E  85 C0                     TEST EAX,EAX
004E2D80  0F 84 C9 00 00 00         JZ 0x004e2e4f
004E2D86  8D 55 C4                  LEA EDX,[EBP + -0x3c]
004E2D89  89 55 EC                  MOV dword ptr [EBP + -0x14],EDX
004E2D8C  8B 55 F4                  MOV EDX,dword ptr [EBP + -0xc]
004E2D8F  8B 4D EC                  MOV ECX,dword ptr [EBP + -0x14]
004E2D92  80 F2 07                  XOR DL,0x7
004E2D95  33 C0                     XOR EAX,EAX
004E2D97  0F A3 11                  BT [ECX],EDX
004E2D9A  D0 D0                     RCL AL,0x1
004E2D9C  85 C0                     TEST EAX,EAX
004E2D9E  0F 85 AB 00 00 00         JNZ 0x004e2e4f
004E2DA4  8B 43 24                  MOV EAX,dword ptr [EBX + 0x24]
004E2DA7  8D 0C 80                  LEA ECX,[EAX + EAX*0x4]
004E2DAA  8D 14 C8                  LEA EDX,[EAX + ECX*0x8]
004E2DAD  8D 0C 50                  LEA ECX,[EAX + EDX*0x2]
004E2DB0  C1 E1 04                  SHL ECX,0x4
004E2DB3  03 C8                     ADD ECX,EAX
004E2DB5  8D 14 4D 0B 51 7F 00      LEA EDX,[ECX*0x2 + 0x7f510b]
004E2DBC  89 55 EC                  MOV dword ptr [EBP + -0x14],EDX
004E2DBF  8B 55 F4                  MOV EDX,dword ptr [EBP + -0xc]
004E2DC2  8B 4D EC                  MOV ECX,dword ptr [EBP + -0x14]
004E2DC5  80 F2 07                  XOR DL,0x7
004E2DC8  33 C0                     XOR EAX,EAX
004E2DCA  0F A3 11                  BT [ECX],EDX
004E2DCD  D0 D0                     RCL AL,0x1
004E2DCF  85 C0                     TEST EAX,EAX
004E2DD1  74 7C                     JZ 0x004e2e4f
004E2DD3  8B 43 24                  MOV EAX,dword ptr [EBX + 0x24]
004E2DD6  8D 0C 80                  LEA ECX,[EAX + EAX*0x4]
004E2DD9  8D 14 C8                  LEA EDX,[EAX + ECX*0x8]
004E2DDC  8D 0C 50                  LEA ECX,[EAX + EDX*0x2]
004E2DDF  C1 E1 04                  SHL ECX,0x4
004E2DE2  03 C8                     ADD ECX,EAX
004E2DE4  8D 14 4D 1F 51 7F 00      LEA EDX,[ECX*0x2 + 0x7f511f]
004E2DEB  89 55 EC                  MOV dword ptr [EBP + -0x14],EDX
004E2DEE  8B 55 F4                  MOV EDX,dword ptr [EBP + -0xc]
004E2DF1  8B 4D EC                  MOV ECX,dword ptr [EBP + -0x14]
004E2DF4  80 F2 07                  XOR DL,0x7
004E2DF7  33 C0                     XOR EAX,EAX
004E2DF9  0F A3 11                  BT [ECX],EDX
004E2DFC  D0 D0                     RCL AL,0x1
004E2DFE  85 C0                     TEST EAX,EAX
004E2E00  74 4D                     JZ 0x004e2e4f
004E2E02  8B 43 24                  MOV EAX,dword ptr [EBX + 0x24]
004E2E05  8B 0D 74 A1 7F 00         MOV ECX,dword ptr [0x007fa174]
004E2E0B  57                        PUSH EDI
004E2E0C  50                        PUSH EAX
004E2E0D  E8 FB 24 F2 FF            CALL 0x0040530d
004E2E12  8B 4B 24                  MOV ECX,dword ptr [EBX + 0x24]
004E2E15  57                        PUSH EDI
004E2E16  51                        PUSH ECX
004E2E17  8B 0D 74 A1 7F 00         MOV ECX,dword ptr [0x007fa174]
004E2E1D  8B F0                     MOV ESI,EAX
004E2E1F  E8 47 EA F1 FF            CALL 0x0040186b
004E2E24  3B C6                     CMP EAX,ESI
004E2E26  7D 27                     JGE 0x004e2e4f
004E2E28  8B 53 24                  MOV EDX,dword ptr [EBX + 0x24]
004E2E2B  8B 0D 74 A1 7F 00         MOV ECX,dword ptr [0x007fa174]
004E2E31  57                        PUSH EDI
004E2E32  52                        PUSH EDX
004E2E33  66 89 7D BC               MOV word ptr [EBP + -0x44],DI
004E2E37  E8 2F EA F1 FF            CALL 0x0040186b
004E2E3C  8B 0D BC 17 81 00         MOV ECX,dword ptr [0x008117bc]
004E2E42  40                        INC EAX
004E2E43  66 89 45 BE               MOV word ptr [EBP + -0x42],AX
004E2E47  8D 55 A4                  LEA EDX,[EBP + -0x5c]
004E2E4A  8B 01                     MOV EAX,dword ptr [ECX]
004E2E4C  52                        PUSH EDX
004E2E4D  FF 10                     CALL dword ptr [EAX]
LAB_004e2e4f:
004E2E4F  47                        INC EDI
004E2E50  81 FF 9B 00 00 00         CMP EDI,0x9b
004E2E56  89 7D F4                  MOV dword ptr [EBP + -0xc],EDI
004E2E59  0F 8C 0F FF FF FF         JL 0x004e2d6e
004E2E5F  8B 75 08                  MOV ESI,dword ptr [EBP + 0x8]
LAB_004e2e62:
004E2E62  8B 43 10                  MOV EAX,dword ptr [EBX + 0x10]
004E2E65  33 C9                     XOR ECX,ECX
004E2E67  8A 88 2D 11 00 00         MOV CL,byte ptr [EAX + 0x112d]
004E2E6D  8B 43 24                  MOV EAX,dword ptr [EBX + 0x24]
004E2E70  3B C1                     CMP EAX,ECX
004E2E72  0F 85 6C 01 00 00         JNZ 0x004e2fe4
004E2E78  8B 93 FD 01 00 00         MOV EDX,dword ptr [EBX + 0x1fd]
004E2E7E  8B 83 F9 01 00 00         MOV EAX,dword ptr [EBX + 0x1f9]
004E2E84  52                        PUSH EDX
004E2E85  33 FF                     XOR EDI,EDI
004E2E87  50                        PUSH EAX
004E2E88  57                        PUSH EDI
004E2E89  E8 CD FE F1 FF            CALL 0x00402d5b
004E2E8E  8A 43 24                  MOV AL,byte ptr [EBX + 0x24]
004E2E91  83 C4 0C                  ADD ESP,0xc
004E2E94  8D 4D F8                  LEA ECX,[EBP + -0x8]
004E2E97  8D 55 FC                  LEA EDX,[EBP + -0x4]
004E2E9A  51                        PUSH ECX
004E2E9B  8B 0D 74 A1 7F 00         MOV ECX,dword ptr [0x007fa174]
004E2EA1  52                        PUSH EDX
004E2EA2  56                        PUSH ESI
004E2EA3  50                        PUSH EAX
004E2EA4  89 7D FC                  MOV dword ptr [EBP + -0x4],EDI
004E2EA7  89 7D F8                  MOV dword ptr [EBP + -0x8],EDI
004E2EAA  E8 08 1B F2 FF            CALL 0x004049b7
004E2EAF  8B 0D 74 A1 7F 00         MOV ECX,dword ptr [0x007fa174]
004E2EB5  25 FF 00 00 00            AND EAX,0xff
004E2EBA  50                        PUSH EAX
004E2EBB  E8 88 25 F2 FF            CALL 0x00405448
004E2EC0  39 7D FC                  CMP dword ptr [EBP + -0x4],EDI
004E2EC3  74 41                     JZ 0x004e2f06
004E2EC5  8A 4B 24                  MOV CL,byte ptr [EBX + 0x24]
004E2EC8  51                        PUSH ECX
004E2EC9  8B 0D 74 A1 7F 00         MOV ECX,dword ptr [0x007fa174]
004E2ECF  E8 E3 1A F2 FF            CALL 0x004049b7
004E2ED4  25 FF 00 00 00            AND EAX,0xff
004E2ED9  48                        DEC EAX
004E2EDA  74 1C                     JZ 0x004e2ef8
004E2EDC  48                        DEC EAX
004E2EDD  74 09                     JZ 0x004e2ee8
004E2EDF  48                        DEC EAX
004E2EE0  75 24                     JNZ 0x004e2f06
004E2EE2  8B 13                     MOV EDX,dword ptr [EBX]
004E2EE4  6A 61                     PUSH 0x61
004E2EE6  EB 14                     JMP 0x004e2efc
LAB_004e2ee8:
004E2EE8  8B 03                     MOV EAX,dword ptr [EBX]
004E2EEA  6A 60                     PUSH 0x60
004E2EEC  6A 06                     PUSH 0x6
004E2EEE  8B CB                     MOV ECX,EBX
004E2EF0  FF 90 90 00 00 00         CALL dword ptr [EAX + 0x90]
004E2EF6  EB 0E                     JMP 0x004e2f06
LAB_004e2ef8:
004E2EF8  8B 13                     MOV EDX,dword ptr [EBX]
004E2EFA  6A 5F                     PUSH 0x5f
LAB_004e2efc:
004E2EFC  6A 06                     PUSH 0x6
004E2EFE  8B CB                     MOV ECX,EBX
004E2F00  FF 92 90 00 00 00         CALL dword ptr [EDX + 0x90]
LAB_004e2f06:
004E2F06  39 7D F8                  CMP dword ptr [EBP + -0x8],EDI
004E2F09  74 41                     JZ 0x004e2f4c
004E2F0B  8A 43 24                  MOV AL,byte ptr [EBX + 0x24]
004E2F0E  8B 0D 74 A1 7F 00         MOV ECX,dword ptr [0x007fa174]
004E2F14  50                        PUSH EAX
004E2F15  E8 9D 1A F2 FF            CALL 0x004049b7
004E2F1A  25 FF 00 00 00            AND EAX,0xff
004E2F1F  48                        DEC EAX
004E2F20  74 1C                     JZ 0x004e2f3e
004E2F22  48                        DEC EAX
004E2F23  74 09                     JZ 0x004e2f2e
004E2F25  48                        DEC EAX
004E2F26  75 24                     JNZ 0x004e2f4c
004E2F28  8B 13                     MOV EDX,dword ptr [EBX]
004E2F2A  6A 5E                     PUSH 0x5e
004E2F2C  EB 14                     JMP 0x004e2f42
LAB_004e2f2e:
004E2F2E  8B 03                     MOV EAX,dword ptr [EBX]
004E2F30  6A 5D                     PUSH 0x5d
004E2F32  6A 06                     PUSH 0x6
004E2F34  8B CB                     MOV ECX,EBX
004E2F36  FF 90 90 00 00 00         CALL dword ptr [EAX + 0x90]
004E2F3C  EB 0E                     JMP 0x004e2f4c
LAB_004e2f3e:
004E2F3E  8B 13                     MOV EDX,dword ptr [EBX]
004E2F40  6A 5C                     PUSH 0x5c
LAB_004e2f42:
004E2F42  6A 06                     PUSH 0x6
004E2F44  8B CB                     MOV ECX,EBX
004E2F46  FF 92 90 00 00 00         CALL dword ptr [EDX + 0x90]
LAB_004e2f4c:
004E2F4C  39 7D FC                  CMP dword ptr [EBP + -0x4],EDI
004E2F4F  75 46                     JNZ 0x004e2f97
004E2F51  39 7D F8                  CMP dword ptr [EBP + -0x8],EDI
004E2F54  75 41                     JNZ 0x004e2f97
004E2F56  8A 43 24                  MOV AL,byte ptr [EBX + 0x24]
004E2F59  8B 0D 74 A1 7F 00         MOV ECX,dword ptr [0x007fa174]
004E2F5F  50                        PUSH EAX
004E2F60  E8 52 1A F2 FF            CALL 0x004049b7
004E2F65  25 FF 00 00 00            AND EAX,0xff
004E2F6A  48                        DEC EAX
004E2F6B  74 1C                     JZ 0x004e2f89
004E2F6D  48                        DEC EAX
004E2F6E  74 09                     JZ 0x004e2f79
004E2F70  48                        DEC EAX
004E2F71  75 24                     JNZ 0x004e2f97
004E2F73  8B 13                     MOV EDX,dword ptr [EBX]
004E2F75  6A 5B                     PUSH 0x5b
004E2F77  EB 14                     JMP 0x004e2f8d
LAB_004e2f79:
004E2F79  8B 03                     MOV EAX,dword ptr [EBX]
004E2F7B  6A 5A                     PUSH 0x5a
004E2F7D  6A 06                     PUSH 0x6
004E2F7F  8B CB                     MOV ECX,EBX
004E2F81  FF 90 90 00 00 00         CALL dword ptr [EAX + 0x90]
004E2F87  EB 0E                     JMP 0x004e2f97
LAB_004e2f89:
004E2F89  8B 13                     MOV EDX,dword ptr [EBX]
004E2F8B  6A 59                     PUSH 0x59
LAB_004e2f8d:
004E2F8D  6A 06                     PUSH 0x6
004E2F8F  8B CB                     MOV ECX,EBX
004E2F91  FF 92 90 00 00 00         CALL dword ptr [EDX + 0x90]
LAB_004e2f97:
004E2F97  8A 83 3D 02 00 00         MOV AL,byte ptr [EBX + 0x23d]
004E2F9D  8B 0D 74 A1 7F 00         MOV ECX,dword ptr [0x007fa174]
004E2FA3  50                        PUSH EAX
004E2FA4  E8 0E 1A F2 FF            CALL 0x004049b7
004E2FA9  25 FF 00 00 00            AND EAX,0xff
004E2FAE  48                        DEC EAX
004E2FAF  74 22                     JZ 0x004e2fd3
004E2FB1  48                        DEC EAX
004E2FB2  74 0C                     JZ 0x004e2fc0
004E2FB4  48                        DEC EAX
004E2FB5  75 2D                     JNZ 0x004e2fe4
004E2FB7  8B 13                     MOV EDX,dword ptr [EBX]
004E2FB9  68 90 03 00 00            PUSH 0x390
004E2FBE  EB 1A                     JMP 0x004e2fda
LAB_004e2fc0:
004E2FC0  8B 03                     MOV EAX,dword ptr [EBX]
004E2FC2  68 D5 02 00 00            PUSH 0x2d5
004E2FC7  6A 04                     PUSH 0x4
004E2FC9  8B CB                     MOV ECX,EBX
004E2FCB  FF 90 90 00 00 00         CALL dword ptr [EAX + 0x90]
004E2FD1  EB 11                     JMP 0x004e2fe4
LAB_004e2fd3:
004E2FD3  8B 13                     MOV EDX,dword ptr [EBX]
004E2FD5  68 0D 02 00 00            PUSH 0x20d
LAB_004e2fda:
004E2FDA  6A 04                     PUSH 0x4
004E2FDC  8B CB                     MOV ECX,EBX
004E2FDE  FF 92 90 00 00 00         CALL dword ptr [EDX + 0x90]
TLOBaseTy::FUN_004e2c30::cf_common_exit_004E2FE4:
004E2FE4  BE 01 00 00 00            MOV ESI,0x1
004E2FE9  8B CB                     MOV ECX,EBX
004E2FEB  56                        PUSH ESI
004E2FEC  C7 83 D0 04 00 00 00 00 00 00  MOV dword ptr [EBX + 0x4d0],0x0
004E2FF6  E8 FC FC F1 FF            CALL 0x00402cf7
004E2FFB  8B C6                     MOV EAX,ESI
004E2FFD  5F                        POP EDI
004E2FFE  5E                        POP ESI
004E2FFF  5B                        POP EBX
004E3000  8B E5                     MOV ESP,EBP
004E3002  5D                        POP EBP
004E3003  C2 04 00                  RET 0x4
LAB_004e3006:
004E3006  5F                        POP EDI
004E3007  5E                        POP ESI
004E3008  33 C0                     XOR EAX,EAX
004E300A  5B                        POP EBX
004E300B  8B E5                     MOV ESP,EBP
004E300D  5D                        POP EBP
004E300E  C2 04 00                  RET 0x4
