TabClassTy::GetMessage:
00723420  55                        PUSH EBP
00723421  8B EC                     MOV EBP,ESP
00723423  81 EC B8 00 00 00         SUB ESP,0xb8
00723429  A1 F8 8D 85 00            MOV EAX,[0x00858df8]
0072342E  53                        PUSH EBX
0072342F  56                        PUSH ESI
00723430  89 4D CC                  MOV dword ptr [EBP + -0x34],ECX
00723433  57                        PUSH EDI
00723434  8D 95 4C FF FF FF         LEA EDX,[EBP + 0xffffff4c]
0072343A  8D 8D 48 FF FF FF         LEA ECX,[EBP + 0xffffff48]
00723440  6A 00                     PUSH 0x0
00723442  52                        PUSH EDX
00723443  C7 45 FC 00 00 00 00      MOV dword ptr [EBP + -0x4],0x0
0072344A  89 85 48 FF FF FF         MOV dword ptr [EBP + 0xffffff48],EAX
00723450  89 0D F8 8D 85 00         MOV dword ptr [0x00858df8],ECX
00723456  E8 95 A3 00 00            CALL 0x0072d7f0
0072345B  83 C4 08                  ADD ESP,0x8
0072345E  85 C0                     TEST EAX,EAX
00723460  0F 85 2D 0D 00 00         JNZ 0x00724193
00723466  8B 7D 08                  MOV EDI,dword ptr [EBP + 0x8]
00723469  8B 5D CC                  MOV EBX,dword ptr [EBP + -0x34]
0072346C  BE 02 00 00 00            MOV ESI,0x2
00723471  8B 47 10                  MOV EAX,dword ptr [EDI + 0x10]
00723474  83 C0 FE                  ADD EAX,-0x2
00723477  83 F8 2B                  CMP EAX,0x2b
0072347A  0F 87 10 09 00 00         JA 0x00723d90
00723480  33 C9                     XOR ECX,ECX
00723482  8A 88 24 42 72 00         MOV CL,byte ptr [EAX + 0x724224]
switchD_00723488::switchD:
00723488  FF 24 8D E8 41 72 00      JMP dword ptr [ECX*0x4 + 0x7241e8]
switchD_00723488::caseD_2:
0072348F  8B 7F 14                  MOV EDI,dword ptr [EDI + 0x14]
00723492  85 FF                     TEST EDI,EDI
00723494  89 7D F8                  MOV dword ptr [EBP + -0x8],EDI
00723497  0F 84 EC 08 00 00         JZ 0x00723d89
0072349D  8B D7                     MOV EDX,EDI
0072349F  8D 7B 24                  LEA EDI,[EBX + 0x24]
007234A2  B9 08 00 00 00            MOV ECX,0x8
007234A7  8B 02                     MOV EAX,dword ptr [EDX]
007234A9  8D 72 08                  LEA ESI,[EDX + 0x8]
007234AC  89 43 74                  MOV dword ptr [EBX + 0x74],EAX
007234AF  33 C0                     XOR EAX,EAX
007234B1  F3 A5                     MOVSD.REP ES:EDI,ESI
007234B3  8D 72 28                  LEA ESI,[EDX + 0x28]
007234B6  8D 7B 44                  LEA EDI,[EBX + 0x44]
007234B9  B9 08 00 00 00            MOV ECX,0x8
007234BE  89 5B 40                  MOV dword ptr [EBX + 0x40],EBX
007234C1  F3 A5                     MOVSD.REP ES:EDI,ESI
007234C3  89 5B 60                  MOV dword ptr [EBX + 0x60],EBX
007234C6  8B 4A 48                  MOV ECX,dword ptr [EDX + 0x48]
007234C9  83 39 00                  CMP dword ptr [ECX],0x0
007234CC  74 0B                     JZ 0x007234d9
LAB_007234ce:
007234CE  8B 51 70                  MOV EDX,dword ptr [ECX + 0x70]
007234D1  83 C1 70                  ADD ECX,0x70
007234D4  40                        INC EAX
007234D5  85 D2                     TEST EDX,EDX
007234D7  75 F5                     JNZ 0x007234ce
LAB_007234d9:
007234D9  40                        INC EAX
007234DA  8D 34 C5 00 00 00 00      LEA ESI,[EAX*0x8 + 0x0]
007234E1  2B F0                     SUB ESI,EAX
007234E3  C1 E6 04                  SHL ESI,0x4
007234E6  56                        PUSH ESI
007234E7  E8 24 77 F8 FF            CALL 0x006aac10
007234EC  8B 55 F8                  MOV EDX,dword ptr [EBP + -0x8]
007234EF  8B CE                     MOV ECX,ESI
007234F1  89 43 64                  MOV dword ptr [EBX + 0x64],EAX
007234F4  8B F8                     MOV EDI,EAX
007234F6  8B 72 48                  MOV ESI,dword ptr [EDX + 0x48]
007234F9  8B C1                     MOV EAX,ECX
007234FB  C1 E9 02                  SHR ECX,0x2
007234FE  F3 A5                     MOVSD.REP ES:EDI,ESI
00723500  8B C8                     MOV ECX,EAX
00723502  8B C2                     MOV EAX,EDX
00723504  83 E1 03                  AND ECX,0x3
00723507  F3 A4                     MOVSB.REP ES:EDI,ESI
00723509  8B 48 4C                  MOV ECX,dword ptr [EAX + 0x4c]
0072350C  89 4B 68                  MOV dword ptr [EBX + 0x68],ECX
0072350F  8B 50 04                  MOV EDX,dword ptr [EAX + 0x4]
00723512  8B CB                     MOV ECX,EBX
00723514  89 53 70                  MOV dword ptr [EBX + 0x70],EDX
00723517  E8 D4 FE FF FF            CALL 0x007233f0
0072351C  85 C0                     TEST EAX,EAX
0072351E  7C 17                     JL 0x00723537
00723520  8B 53 64                  MOV EDX,dword ptr [EBX + 0x64]
00723523  8D 0C C5 00 00 00 00      LEA ECX,[EAX*0x8 + 0x0]
0072352A  2B C8                     SUB ECX,EAX
0072352C  C1 E1 04                  SHL ECX,0x4
0072352F  C7 44 11 04 01 00 00 00   MOV dword ptr [ECX + EDX*0x1 + 0x4],0x1
LAB_00723537:
00723537  8B 4B 64                  MOV ECX,dword ptr [EBX + 0x64]
0072353A  33 D2                     XOR EDX,EDX
0072353C  39 11                     CMP dword ptr [ECX],EDX
0072353E  74 18                     JZ 0x00723558
00723540  33 C0                     XOR EAX,EAX
LAB_00723542:
00723542  89 51 44                  MOV dword ptr [ECX + 0x44],EDX
00723545  8B 4B 64                  MOV ECX,dword ptr [EBX + 0x64]
00723548  89 54 01 4C               MOV dword ptr [ECX + EAX*0x1 + 0x4c],EDX
0072354C  8B 4B 64                  MOV ECX,dword ptr [EBX + 0x64]
0072354F  83 C0 70                  ADD EAX,0x70
00723552  03 C8                     ADD ECX,EAX
00723554  39 11                     CMP dword ptr [ECX],EDX
00723556  75 EA                     JNZ 0x00723542
LAB_00723558:
00723558  8B 75 F8                  MOV ESI,dword ptr [EBP + -0x8]
0072355B  33 C0                     XOR EAX,EAX
0072355D  8B 7B 74                  MOV EDI,dword ptr [EBX + 0x74]
00723560  39 56 50                  CMP dword ptr [ESI + 0x50],EDX
00723563  0F 94 C0                  SETZ AL
00723566  89 43 1C                  MOV dword ptr [EBX + 0x1c],EAX
00723569  8B 46 54                  MOV EAX,dword ptr [ESI + 0x54]
0072356C  33 C9                     XOR ECX,ECX
0072356E  3B C2                     CMP EAX,EDX
00723570  8B 53 0C                  MOV EDX,dword ptr [EBX + 0xc]
00723573  0F 94 C1                  SETZ CL
00723576  89 4B 20                  MOV dword ptr [EBX + 0x20],ECX
00723579  8B 4B 10                  MOV ECX,dword ptr [EBX + 0x10]
0072357C  81 CF 00 00 00 70         OR EDI,0x70000000
00723582  52                        PUSH EDX
00723583  89 7B 74                  MOV dword ptr [EBX + 0x74],EDI
00723586  E8 B5 17 FC FF            CALL 0x006e4d40
0072358B  83 F8 01                  CMP EAX,0x1
0072358E  0F 85 FC 07 00 00         JNZ 0x00723d90
00723594  8B 43 08                  MOV EAX,dword ptr [EBX + 0x8]
00723597  8B 13                     MOV EDX,dword ptr [EBX]
00723599  89 45 DC                  MOV dword ptr [EBP + -0x24],EAX
0072359C  8D 45 D4                  LEA EAX,[EBP + -0x2c]
0072359F  50                        PUSH EAX
007235A0  8B CB                     MOV ECX,EBX
007235A2  C7 45 E0 02 00 00 00      MOV dword ptr [EBP + -0x20],0x2
007235A9  C7 45 E4 08 00 00 00      MOV dword ptr [EBP + -0x1c],0x8
007235B0  FF 12                     CALL dword ptr [EDX]
007235B2  89 45 FC                  MOV dword ptr [EBP + -0x4],EAX
007235B5  E9 D6 07 00 00            JMP 0x00723d90
switchD_00723488::caseD_3:
007235BA  8B 4B 0C                  MOV ECX,dword ptr [EBX + 0xc]
007235BD  51                        PUSH ECX
007235BE  8B 4B 10                  MOV ECX,dword ptr [EBX + 0x10]
007235C1  E8 7A 17 FC FF            CALL 0x006e4d40
007235C6  83 F8 01                  CMP EAX,0x1
007235C9  75 1A                     JNZ 0x007235e5
007235CB  8B 53 08                  MOV EDX,dword ptr [EBX + 0x8]
007235CE  8B 03                     MOV EAX,dword ptr [EBX]
007235D0  8D 4D D4                  LEA ECX,[EBP + -0x2c]
007235D3  89 55 DC                  MOV dword ptr [EBP + -0x24],EDX
007235D6  51                        PUSH ECX
007235D7  8B CB                     MOV ECX,EBX
007235D9  89 75 E0                  MOV dword ptr [EBP + -0x20],ESI
007235DC  C7 45 E4 09 00 00 00      MOV dword ptr [EBP + -0x1c],0x9
007235E3  FF 10                     CALL dword ptr [EAX]
LAB_007235e5:
007235E5  8B 4B 64                  MOV ECX,dword ptr [EBX + 0x64]
007235E8  8D 43 64                  LEA EAX,[EBX + 0x64]
007235EB  85 C9                     TEST ECX,ECX
007235ED  0F 84 9D 07 00 00         JZ 0x00723d90
007235F3  50                        PUSH EAX
007235F4  E8 67 7A F8 FF            CALL 0x006ab060
007235F9  E9 92 07 00 00            JMP 0x00723d90
switchD_00723488::caseD_8:
007235FE  8B 43 74                  MOV EAX,dword ptr [EBX + 0x74]
00723601  A9 00 00 00 70            TEST EAX,0x70000000
00723606  0F 84 84 07 00 00         JZ 0x00723d90
0072360C  25 FF FF FF 8F            AND EAX,0x8fffffff
00723611  89 43 74                  MOV dword ptr [EBX + 0x74],EAX
00723614  8B 43 1C                  MOV EAX,dword ptr [EBX + 0x1c]
00723617  85 C0                     TEST EAX,EAX
00723619  74 5D                     JZ 0x00723678
0072361B  8B 43 64                  MOV EAX,dword ptr [EBX + 0x64]
0072361E  83 38 00                  CMP dword ptr [EAX],0x0
00723621  74 55                     JZ 0x00723678
00723623  33 F6                     XOR ESI,ESI
00723625  BF 06 00 00 00            MOV EDI,0x6
LAB_0072362a:
0072362A  8B 4C 30 1C               MOV ECX,dword ptr [EAX + ESI*0x1 + 0x1c]
0072362E  85 C9                     TEST ECX,ECX
00723630  75 3A                     JNZ 0x0072366c
00723632  8B 54 30 0C               MOV EDX,dword ptr [EAX + ESI*0x1 + 0xc]
00723636  89 55 BC                  MOV dword ptr [EBP + -0x44],EDX
00723639  8B 4C 30 10               MOV ECX,dword ptr [EAX + ESI*0x1 + 0x10]
0072363D  89 4D C0                  MOV dword ptr [EBP + -0x40],ECX
00723640  8B 54 30 14               MOV EDX,dword ptr [EAX + ESI*0x1 + 0x14]
00723644  89 55 C4                  MOV dword ptr [EBP + -0x3c],EDX
00723647  8B 44 30 18               MOV EAX,dword ptr [EAX + ESI*0x1 + 0x18]
0072364B  8D 4D BC                  LEA ECX,[EBP + -0x44]
0072364E  8D 55 D4                  LEA EDX,[EBP + -0x2c]
00723651  89 4D E8                  MOV dword ptr [EBP + -0x18],ECX
00723654  52                        PUSH EDX
00723655  8B CB                     MOV ECX,EBX
00723657  89 45 C8                  MOV dword ptr [EBP + -0x38],EAX
0072365A  C7 45 E0 0F 00 00 00      MOV dword ptr [EBP + -0x20],0xf
00723661  89 7D E4                  MOV dword ptr [EBP + -0x1c],EDI
00723664  E8 77 29 FC FF            CALL 0x006e5fe0
00723669  89 45 FC                  MOV dword ptr [EBP + -0x4],EAX
LAB_0072366c:
0072366C  8B 43 64                  MOV EAX,dword ptr [EBX + 0x64]
0072366F  83 C6 70                  ADD ESI,0x70
00723672  83 3C 30 00               CMP dword ptr [EAX + ESI*0x1],0x0
00723676  75 B2                     JNZ 0x0072362a
LAB_00723678:
00723678  8B 43 08                  MOV EAX,dword ptr [EBX + 0x8]
0072367B  8D 4D D4                  LEA ECX,[EBP + -0x2c]
0072367E  51                        PUSH ECX
0072367F  6A 01                     PUSH 0x1
00723681  6A 03                     PUSH 0x3
00723683  8B CB                     MOV ECX,EBX
00723685  C7 45 E4 13 00 00 00      MOV dword ptr [EBP + -0x1c],0x13
0072368C  89 45 E8                  MOV dword ptr [EBP + -0x18],EAX
0072368F  C7 45 EC 00 00 00 00      MOV dword ptr [EBP + -0x14],0x0
00723696  E8 65 29 FC FF            CALL 0x006e6000
0072369B  85 C0                     TEST EAX,EAX
0072369D  0F 85 E6 06 00 00         JNZ 0x00723d89
007236A3  F7 43 74 00 00 00 F0      TEST dword ptr [EBX + 0x74],0xf0000000
007236AA  0F 85 E0 06 00 00         JNZ 0x00723d90
007236B0  8B 43 64                  MOV EAX,dword ptr [EBX + 0x64]
007236B3  83 38 00                  CMP dword ptr [EAX],0x0
007236B6  0F 84 D4 06 00 00         JZ 0x00723d90
007236BC  33 F6                     XOR ESI,ESI
LAB_007236be:
007236BE  8B 13                     MOV EDX,dword ptr [EBX]
007236C0  03 C6                     ADD EAX,ESI
007236C2  50                        PUSH EAX
007236C3  8B CB                     MOV ECX,EBX
007236C5  FF 52 04                  CALL dword ptr [EDX + 0x4]
007236C8  85 C0                     TEST EAX,EAX
007236CA  0F 85 B9 06 00 00         JNZ 0x00723d89
007236D0  8B 43 64                  MOV EAX,dword ptr [EBX + 0x64]
007236D3  83 C6 70                  ADD ESI,0x70
007236D6  83 3C 30 00               CMP dword ptr [EAX + ESI*0x1],0x0
007236DA  75 E2                     JNZ 0x007236be
007236DC  E9 AF 06 00 00            JMP 0x00723d90
switchD_00723488::caseD_9:
007236E1  F7 43 74 00 00 00 70      TEST dword ptr [EBX + 0x74],0x70000000
007236E8  0F 85 A2 06 00 00         JNZ 0x00723d90
007236EE  8B 43 64                  MOV EAX,dword ptr [EBX + 0x64]
007236F1  83 38 00                  CMP dword ptr [EAX],0x0
007236F4  74 61                     JZ 0x00723757
007236F6  33 F6                     XOR ESI,ESI
LAB_007236f8:
007236F8  8B 4C 30 1C               MOV ECX,dword ptr [EAX + ESI*0x1 + 0x1c]
007236FC  85 C9                     TEST ECX,ECX
007236FE  75 4B                     JNZ 0x0072374b
00723700  8B 4C 30 0C               MOV ECX,dword ptr [EAX + ESI*0x1 + 0xc]
00723704  89 4D 9C                  MOV dword ptr [EBP + -0x64],ECX
00723707  8B 54 30 10               MOV EDX,dword ptr [EAX + ESI*0x1 + 0x10]
0072370B  89 55 A0                  MOV dword ptr [EBP + -0x60],EDX
0072370E  8B 4C 30 14               MOV ECX,dword ptr [EAX + ESI*0x1 + 0x14]
00723712  89 4D A4                  MOV dword ptr [EBP + -0x5c],ECX
00723715  8B 54 30 18               MOV EDX,dword ptr [EAX + ESI*0x1 + 0x18]
00723719  8B 43 08                  MOV EAX,dword ptr [EBX + 0x8]
0072371C  89 55 A8                  MOV dword ptr [EBP + -0x58],EDX
0072371F  8D 4D 9C                  LEA ECX,[EBP + -0x64]
00723722  8D 55 D4                  LEA EDX,[EBP + -0x2c]
00723725  89 4D E8                  MOV dword ptr [EBP + -0x18],ECX
00723728  52                        PUSH EDX
00723729  8B CB                     MOV ECX,EBX
0072372B  89 45 D4                  MOV dword ptr [EBP + -0x2c],EAX
0072372E  C7 45 D8 02 00 00 00      MOV dword ptr [EBP + -0x28],0x2
00723735  C7 45 E0 0F 00 00 00      MOV dword ptr [EBP + -0x20],0xf
0072373C  C7 45 E4 07 00 00 00      MOV dword ptr [EBP + -0x1c],0x7
00723743  E8 98 28 FC FF            CALL 0x006e5fe0
00723748  89 45 FC                  MOV dword ptr [EBP + -0x4],EAX
LAB_0072374b:
0072374B  8B 43 64                  MOV EAX,dword ptr [EBX + 0x64]
0072374E  83 C6 70                  ADD ESI,0x70
00723751  83 3C 30 00               CMP dword ptr [EAX + ESI*0x1],0x0
00723755  75 A1                     JNZ 0x007236f8
LAB_00723757:
00723757  8B 43 64                  MOV EAX,dword ptr [EBX + 0x64]
0072375A  83 38 00                  CMP dword ptr [EAX],0x0
0072375D  74 3C                     JZ 0x0072379b
0072375F  33 FF                     XOR EDI,EDI
00723761  33 F6                     XOR ESI,ESI
00723763  EB 02                     JMP 0x00723767
LAB_00723765:
00723765  33 FF                     XOR EDI,EDI
LAB_00723767:
00723767  39 7C 30 44               CMP dword ptr [EAX + ESI*0x1 + 0x44],EDI
0072376B  74 1C                     JZ 0x00723789
0072376D  89 7C 30 44               MOV dword ptr [EAX + ESI*0x1 + 0x44],EDI
00723771  8B 43 64                  MOV EAX,dword ptr [EBX + 0x64]
00723774  03 C6                     ADD EAX,ESI
00723776  39 78 60                  CMP dword ptr [EAX + 0x60],EDI
00723779  74 0E                     JZ 0x00723789
0072377B  83 C0 50                  ADD EAX,0x50
0072377E  8B CB                     MOV ECX,EBX
00723780  50                        PUSH EAX
00723781  E8 5A 28 FC FF            CALL 0x006e5fe0
00723786  89 45 FC                  MOV dword ptr [EBP + -0x4],EAX
LAB_00723789:
00723789  8B 4B 64                  MOV ECX,dword ptr [EBX + 0x64]
0072378C  83 C6 70                  ADD ESI,0x70
0072378F  89 7C 31 DC               MOV dword ptr [ECX + ESI*0x1 + -0x24],EDI
00723793  8B 43 64                  MOV EAX,dword ptr [EBX + 0x64]
00723796  39 3C 30                  CMP dword ptr [EAX + ESI*0x1],EDI
00723799  75 CA                     JNZ 0x00723765
LAB_0072379b:
0072379B  8B 53 08                  MOV EDX,dword ptr [EBX + 0x8]
0072379E  8D 45 D4                  LEA EAX,[EBP + -0x2c]
007237A1  50                        PUSH EAX
007237A2  6A 01                     PUSH 0x1
007237A4  6A 03                     PUSH 0x3
007237A6  8B CB                     MOV ECX,EBX
007237A8  C7 45 E4 14 00 00 00      MOV dword ptr [EBP + -0x1c],0x14
007237AF  89 55 E8                  MOV dword ptr [EBP + -0x18],EDX
007237B2  E8 49 28 FC FF            CALL 0x006e6000
007237B7  81 4B 74 00 00 00 70      OR dword ptr [EBX + 0x74],0x70000000
007237BE  E9 CD 05 00 00            JMP 0x00723d90
switchD_00723488::caseD_5:
007237C3  F7 43 74 00 00 00 F0      TEST dword ptr [EBX + 0x74],0xf0000000
007237CA  0F 85 C0 05 00 00         JNZ 0x00723d90
007237D0  8B 43 64                  MOV EAX,dword ptr [EBX + 0x64]
007237D3  83 38 00                  CMP dword ptr [EAX],0x0
007237D6  0F 84 B4 05 00 00         JZ 0x00723d90
007237DC  33 F6                     XOR ESI,ESI
LAB_007237de:
007237DE  8B 13                     MOV EDX,dword ptr [EBX]
007237E0  03 C6                     ADD EAX,ESI
007237E2  50                        PUSH EAX
007237E3  8B CB                     MOV ECX,EBX
007237E5  FF 52 04                  CALL dword ptr [EDX + 0x4]
007237E8  85 C0                     TEST EAX,EAX
007237EA  0F 85 99 05 00 00         JNZ 0x00723d89
007237F0  8B 43 64                  MOV EAX,dword ptr [EBX + 0x64]
007237F3  83 C6 70                  ADD ESI,0x70
007237F6  83 3C 30 00               CMP dword ptr [EAX + ESI*0x1],0x0
007237FA  75 E2                     JNZ 0x007237de
007237FC  E9 8F 05 00 00            JMP 0x00723d90
switchD_00723488::caseD_6:
00723801  8B 07                     MOV EAX,dword ptr [EDI]
00723803  8B 4B 08                  MOV ECX,dword ptr [EBX + 0x8]
00723806  3B C1                     CMP EAX,ECX
00723808  75 09                     JNZ 0x00723813
0072380A  39 77 04                  CMP dword ptr [EDI + 0x4],ESI
0072380D  0F 84 7D 05 00 00         JZ 0x00723d90
LAB_00723813:
00723813  8B 43 20                  MOV EAX,dword ptr [EBX + 0x20]
00723816  85 C0                     TEST EAX,EAX
00723818  0F 84 72 05 00 00         JZ 0x00723d90
0072381E  8B 4D 08                  MOV ECX,dword ptr [EBP + 0x8]
00723821  8B 43 64                  MOV EAX,dword ptr [EBX + 0x64]
00723824  8B 79 14                  MOV EDI,dword ptr [ECX + 0x14]
00723827  8B 08                     MOV ECX,dword ptr [EAX]
00723829  85 C9                     TEST ECX,ECX
0072382B  0F 84 5F 05 00 00         JZ 0x00723d90
00723831  33 F6                     XOR ESI,ESI
LAB_00723833:
00723833  8B 4C 30 1C               MOV ECX,dword ptr [EAX + ESI*0x1 + 0x1c]
00723837  85 C9                     TEST ECX,ECX
00723839  75 2C                     JNZ 0x00723867
0072383B  8B 57 0C                  MOV EDX,dword ptr [EDI + 0xc]
0072383E  8B 4F 08                  MOV ECX,dword ptr [EDI + 0x8]
00723841  52                        PUSH EDX
00723842  8B 57 04                  MOV EDX,dword ptr [EDI + 0x4]
00723845  51                        PUSH ECX
00723846  8B 0F                     MOV ECX,dword ptr [EDI]
00723848  52                        PUSH EDX
00723849  8B 54 30 18               MOV EDX,dword ptr [EAX + ESI*0x1 + 0x18]
0072384D  51                        PUSH ECX
0072384E  8B 4C 30 14               MOV ECX,dword ptr [EAX + ESI*0x1 + 0x14]
00723852  52                        PUSH EDX
00723853  8B 54 30 10               MOV EDX,dword ptr [EAX + ESI*0x1 + 0x10]
00723857  8B 44 30 0C               MOV EAX,dword ptr [EAX + ESI*0x1 + 0xc]
0072385B  51                        PUSH ECX
0072385C  52                        PUSH EDX
0072385D  50                        PUSH EAX
0072385E  E8 2D F8 02 00            CALL 0x00753090
00723863  85 C0                     TEST EAX,EAX
00723865  75 11                     JNZ 0x00723878
LAB_00723867:
00723867  8B 43 64                  MOV EAX,dword ptr [EBX + 0x64]
0072386A  83 C6 70                  ADD ESI,0x70
0072386D  83 3C 30 00               CMP dword ptr [EAX + ESI*0x1],0x0
00723871  75 C0                     JNZ 0x00723833
00723873  E9 18 05 00 00            JMP 0x00723d90
LAB_00723878:
00723878  8B 73 74                  MOV ESI,dword ptr [EBX + 0x74]
0072387B  8B 53 18                  MOV EDX,dword ptr [EBX + 0x18]
0072387E  8B 43 64                  MOV EAX,dword ptr [EBX + 0x64]
00723881  81 CE 00 00 00 80         OR ESI,0x80000000
00723887  42                        INC EDX
00723888  89 73 74                  MOV dword ptr [EBX + 0x74],ESI
0072388B  89 53 18                  MOV dword ptr [EBX + 0x18],EDX
0072388E  8B 08                     MOV ECX,dword ptr [EAX]
00723890  33 FF                     XOR EDI,EDI
00723892  85 C9                     TEST ECX,ECX
00723894  74 3B                     JZ 0x007238d1
00723896  33 F6                     XOR ESI,ESI
LAB_00723898:
00723898  8B 4C 30 44               MOV ECX,dword ptr [EAX + ESI*0x1 + 0x44]
0072389C  85 C9                     TEST ECX,ECX
0072389E  74 24                     JZ 0x007238c4
007238A0  C7 44 30 44 00 00 00 00   MOV dword ptr [EAX + ESI*0x1 + 0x44],0x0
007238A8  8B 4B 64                  MOV ECX,dword ptr [EBX + 0x64]
007238AB  8D 04 31                  LEA EAX,[ECX + ESI*0x1]
007238AE  8B 4C 31 60               MOV ECX,dword ptr [ECX + ESI*0x1 + 0x60]
007238B2  85 C9                     TEST ECX,ECX
007238B4  74 0E                     JZ 0x007238c4
007238B6  83 C0 50                  ADD EAX,0x50
007238B9  8B CB                     MOV ECX,EBX
007238BB  50                        PUSH EAX
007238BC  E8 1F 27 FC FF            CALL 0x006e5fe0
007238C1  89 45 FC                  MOV dword ptr [EBP + -0x4],EAX
LAB_007238c4:
007238C4  8B 43 64                  MOV EAX,dword ptr [EBX + 0x64]
007238C7  83 C6 70                  ADD ESI,0x70
007238CA  47                        INC EDI
007238CB  83 3C 30 00               CMP dword ptr [EAX + ESI*0x1],0x0
007238CF  75 C7                     JNZ 0x00723898
LAB_007238d1:
007238D1  8B 43 64                  MOV EAX,dword ptr [EBX + 0x64]
007238D4  8D 14 FD 00 00 00 00      LEA EDX,[EDI*0x8 + 0x0]
007238DB  2B D7                     SUB EDX,EDI
007238DD  C1 E2 04                  SHL EDX,0x4
007238E0  C7 44 02 4C 00 00 00 00   MOV dword ptr [EDX + EAX*0x1 + 0x4c],0x0
007238E8  E9 A3 04 00 00            JMP 0x00723d90
switchD_00723488::caseD_7:
007238ED  F7 43 74 00 00 00 80      TEST dword ptr [EBX + 0x74],0x80000000
007238F4  0F 84 96 04 00 00         JZ 0x00723d90
007238FA  8B 0F                     MOV ECX,dword ptr [EDI]
007238FC  8B 43 08                  MOV EAX,dword ptr [EBX + 0x8]
007238FF  3B C8                     CMP ECX,EAX
00723901  75 09                     JNZ 0x0072390c
00723903  39 77 04                  CMP dword ptr [EDI + 0x4],ESI
00723906  0F 84 84 04 00 00         JZ 0x00723d90
LAB_0072390c:
0072390C  8B 43 64                  MOV EAX,dword ptr [EBX + 0x64]
0072390F  8B 7F 14                  MOV EDI,dword ptr [EDI + 0x14]
00723912  83 38 00                  CMP dword ptr [EAX],0x0
00723915  0F 84 75 04 00 00         JZ 0x00723d90
0072391B  33 F6                     XOR ESI,ESI
LAB_0072391d:
0072391D  8B 4C 30 1C               MOV ECX,dword ptr [EAX + ESI*0x1 + 0x1c]
00723921  85 C9                     TEST ECX,ECX
00723923  75 33                     JNZ 0x00723958
00723925  8B 57 0C                  MOV EDX,dword ptr [EDI + 0xc]
00723928  8B 4F 08                  MOV ECX,dword ptr [EDI + 0x8]
0072392B  52                        PUSH EDX
0072392C  8B 57 04                  MOV EDX,dword ptr [EDI + 0x4]
0072392F  51                        PUSH ECX
00723930  8B 0F                     MOV ECX,dword ptr [EDI]
00723932  52                        PUSH EDX
00723933  8B 54 30 18               MOV EDX,dword ptr [EAX + ESI*0x1 + 0x18]
00723937  51                        PUSH ECX
00723938  8B 4C 30 14               MOV ECX,dword ptr [EAX + ESI*0x1 + 0x14]
0072393C  52                        PUSH EDX
0072393D  8B 54 30 10               MOV EDX,dword ptr [EAX + ESI*0x1 + 0x10]
00723941  8B 44 30 0C               MOV EAX,dword ptr [EAX + ESI*0x1 + 0xc]
00723945  51                        PUSH ECX
00723946  52                        PUSH EDX
00723947  50                        PUSH EAX
00723948  E8 43 F7 02 00            CALL 0x00753090
0072394D  85 C0                     TEST EAX,EAX
0072394F  74 07                     JZ 0x00723958
00723951  8B 43 18                  MOV EAX,dword ptr [EBX + 0x18]
00723954  85 C0                     TEST EAX,EAX
00723956  77 11                     JA 0x00723969
LAB_00723958:
00723958  8B 43 64                  MOV EAX,dword ptr [EBX + 0x64]
0072395B  83 C6 70                  ADD ESI,0x70
0072395E  83 3C 30 00               CMP dword ptr [EAX + ESI*0x1],0x0
00723962  75 B9                     JNZ 0x0072391d
00723964  E9 27 04 00 00            JMP 0x00723d90
LAB_00723969:
00723969  8B 43 18                  MOV EAX,dword ptr [EBX + 0x18]
0072396C  48                        DEC EAX
0072396D  89 43 18                  MOV dword ptr [EBX + 0x18],EAX
00723970  0F 85 1A 04 00 00         JNZ 0x00723d90
00723976  8B 53 74                  MOV EDX,dword ptr [EBX + 0x74]
00723979  8B 43 64                  MOV EAX,dword ptr [EBX + 0x64]
0072397C  81 E2 FF FF FF 7F         AND EDX,0x7fffffff
00723982  89 53 74                  MOV dword ptr [EBX + 0x74],EDX
00723985  8B 08                     MOV ECX,dword ptr [EAX]
00723987  85 C9                     TEST ECX,ECX
00723989  0F 84 01 04 00 00         JZ 0x00723d90
0072398F  33 F6                     XOR ESI,ESI
LAB_00723991:
00723991  8B 13                     MOV EDX,dword ptr [EBX]
00723993  03 C6                     ADD EAX,ESI
00723995  50                        PUSH EAX
00723996  8B CB                     MOV ECX,EBX
00723998  FF 52 04                  CALL dword ptr [EDX + 0x4]
0072399B  85 C0                     TEST EAX,EAX
0072399D  0F 85 E6 03 00 00         JNZ 0x00723d89
007239A3  8B 43 64                  MOV EAX,dword ptr [EBX + 0x64]
007239A6  83 C6 70                  ADD ESI,0x70
007239A9  83 3C 30 00               CMP dword ptr [EAX + ESI*0x1],0x0
007239AD  75 E2                     JNZ 0x00723991
007239AF  E9 DC 03 00 00            JMP 0x00723d90
switchD_00723488::caseD_24:
007239B4  8B 75 CC                  MOV ESI,dword ptr [EBP + -0x34]
007239B7  8B 46 74                  MOV EAX,dword ptr [ESI + 0x74]
007239BA  A9 00 00 00 80            TEST EAX,0x80000000
007239BF  74 11                     JZ 0x007239d2
007239C1  25 FF FF FF 7F            AND EAX,0x7fffffff
007239C6  C7 46 18 00 00 00 00      MOV dword ptr [ESI + 0x18],0x0
007239CD  89 46 74                  MOV dword ptr [ESI + 0x74],EAX
007239D0  EB 6D                     JMP 0x00723a3f
LAB_007239d2:
007239D2  A9 00 00 00 70            TEST EAX,0x70000000
007239D7  75 66                     JNZ 0x00723a3f
007239D9  8B 46 64                  MOV EAX,dword ptr [ESI + 0x64]
007239DC  83 38 00                  CMP dword ptr [EAX],0x0
007239DF  74 5E                     JZ 0x00723a3f
007239E1  33 DB                     XOR EBX,EBX
LAB_007239e3:
007239E3  8B 4C 18 1C               MOV ECX,dword ptr [EAX + EBX*0x1 + 0x1c]
007239E7  85 C9                     TEST ECX,ECX
007239E9  75 48                     JNZ 0x00723a33
007239EB  8B 4C 18 0C               MOV ECX,dword ptr [EAX + EBX*0x1 + 0xc]
007239EF  89 4D 8C                  MOV dword ptr [EBP + -0x74],ECX
007239F2  8B 54 18 10               MOV EDX,dword ptr [EAX + EBX*0x1 + 0x10]
007239F6  89 55 90                  MOV dword ptr [EBP + -0x70],EDX
007239F9  8B 4C 18 14               MOV ECX,dword ptr [EAX + EBX*0x1 + 0x14]
007239FD  89 4D 94                  MOV dword ptr [EBP + -0x6c],ECX
00723A00  8B 54 18 18               MOV EDX,dword ptr [EAX + EBX*0x1 + 0x18]
00723A04  8B 46 08                  MOV EAX,dword ptr [ESI + 0x8]
00723A07  89 55 98                  MOV dword ptr [EBP + -0x68],EDX
00723A0A  8D 4D 8C                  LEA ECX,[EBP + -0x74]
00723A0D  8D 55 D4                  LEA EDX,[EBP + -0x2c]
00723A10  89 4D E8                  MOV dword ptr [EBP + -0x18],ECX
00723A13  52                        PUSH EDX
00723A14  8B CE                     MOV ECX,ESI
00723A16  89 45 D4                  MOV dword ptr [EBP + -0x2c],EAX
00723A19  C7 45 D8 02 00 00 00      MOV dword ptr [EBP + -0x28],0x2
00723A20  C7 45 E0 0F 00 00 00      MOV dword ptr [EBP + -0x20],0xf
00723A27  C7 45 E4 07 00 00 00      MOV dword ptr [EBP + -0x1c],0x7
00723A2E  E8 AD 25 FC FF            CALL 0x006e5fe0
LAB_00723a33:
00723A33  8B 46 64                  MOV EAX,dword ptr [ESI + 0x64]
00723A36  83 C3 70                  ADD EBX,0x70
00723A39  83 3C 18 00               CMP dword ptr [EAX + EBX*0x1],0x0
00723A3D  75 A4                     JNZ 0x007239e3
LAB_00723a3f:
00723A3F  8B 46 64                  MOV EAX,dword ptr [ESI + 0x64]
00723A42  83 38 00                  CMP dword ptr [EAX],0x0
00723A45  74 2E                     JZ 0x00723a75
00723A47  33 C9                     XOR ECX,ECX
LAB_00723a49:
00723A49  0F BF 57 14               MOVSX EDX,word ptr [EDI + 0x14]
00723A4D  8B 58 0C                  MOV EBX,dword ptr [EAX + 0xc]
00723A50  03 DA                     ADD EBX,EDX
00723A52  89 58 0C                  MOV dword ptr [EAX + 0xc],EBX
00723A55  8B 46 64                  MOV EAX,dword ptr [ESI + 0x64]
00723A58  0F BF 57 16               MOVSX EDX,word ptr [EDI + 0x16]
00723A5C  8B 5C 08 10               MOV EBX,dword ptr [EAX + ECX*0x1 + 0x10]
00723A60  8D 44 08 10               LEA EAX,[EAX + ECX*0x1 + 0x10]
00723A64  03 DA                     ADD EBX,EDX
00723A66  83 C1 70                  ADD ECX,0x70
00723A69  89 18                     MOV dword ptr [EAX],EBX
00723A6B  8B 46 64                  MOV EAX,dword ptr [ESI + 0x64]
00723A6E  03 C1                     ADD EAX,ECX
00723A70  83 38 00                  CMP dword ptr [EAX],0x0
00723A73  75 D4                     JNZ 0x00723a49
LAB_00723a75:
00723A75  F7 46 74 00 00 00 70      TEST dword ptr [ESI + 0x74],0x70000000
00723A7C  75 64                     JNZ 0x00723ae2
00723A7E  8B 46 1C                  MOV EAX,dword ptr [ESI + 0x1c]
00723A81  85 C0                     TEST EAX,EAX
00723A83  74 5D                     JZ 0x00723ae2
00723A85  8B 46 64                  MOV EAX,dword ptr [ESI + 0x64]
00723A88  83 38 00                  CMP dword ptr [EAX],0x0
00723A8B  74 55                     JZ 0x00723ae2
00723A8D  33 DB                     XOR EBX,EBX
00723A8F  BF 06 00 00 00            MOV EDI,0x6
LAB_00723a94:
00723A94  8B 4C 18 1C               MOV ECX,dword ptr [EAX + EBX*0x1 + 0x1c]
00723A98  85 C9                     TEST ECX,ECX
00723A9A  75 3A                     JNZ 0x00723ad6
00723A9C  8B 4C 18 0C               MOV ECX,dword ptr [EAX + EBX*0x1 + 0xc]
00723AA0  89 4D AC                  MOV dword ptr [EBP + -0x54],ECX
00723AA3  8B 54 18 10               MOV EDX,dword ptr [EAX + EBX*0x1 + 0x10]
00723AA7  89 55 B0                  MOV dword ptr [EBP + -0x50],EDX
00723AAA  8B 4C 18 14               MOV ECX,dword ptr [EAX + EBX*0x1 + 0x14]
00723AAE  89 4D B4                  MOV dword ptr [EBP + -0x4c],ECX
00723AB1  8B 54 18 18               MOV EDX,dword ptr [EAX + EBX*0x1 + 0x18]
00723AB5  8D 4D D4                  LEA ECX,[EBP + -0x2c]
00723AB8  8D 45 AC                  LEA EAX,[EBP + -0x54]
00723ABB  51                        PUSH ECX
00723ABC  8B CE                     MOV ECX,ESI
00723ABE  89 55 B8                  MOV dword ptr [EBP + -0x48],EDX
00723AC1  C7 45 E0 0F 00 00 00      MOV dword ptr [EBP + -0x20],0xf
00723AC8  89 7D E4                  MOV dword ptr [EBP + -0x1c],EDI
00723ACB  89 45 E8                  MOV dword ptr [EBP + -0x18],EAX
00723ACE  E8 0D 25 FC FF            CALL 0x006e5fe0
00723AD3  89 45 FC                  MOV dword ptr [EBP + -0x4],EAX
LAB_00723ad6:
00723AD6  8B 46 64                  MOV EAX,dword ptr [ESI + 0x64]
00723AD9  83 C3 70                  ADD EBX,0x70
00723ADC  83 3C 18 00               CMP dword ptr [EAX + EBX*0x1],0x0
00723AE0  75 B2                     JNZ 0x00723a94
LAB_00723ae2:
00723AE2  8B 46 64                  MOV EAX,dword ptr [ESI + 0x64]
00723AE5  83 38 00                  CMP dword ptr [EAX],0x0
00723AE8  74 45                     JZ 0x00723b2f
00723AEA  33 DB                     XOR EBX,EBX
LAB_00723aec:
00723AEC  8B 4C 18 44               MOV ECX,dword ptr [EAX + EBX*0x1 + 0x44]
00723AF0  85 C9                     TEST ECX,ECX
00723AF2  74 24                     JZ 0x00723b18
00723AF4  C7 44 18 44 00 00 00 00   MOV dword ptr [EAX + EBX*0x1 + 0x44],0x0
00723AFC  8B 56 64                  MOV EDX,dword ptr [ESI + 0x64]
00723AFF  8B 4C 1A 60               MOV ECX,dword ptr [EDX + EBX*0x1 + 0x60]
00723B03  8D 04 1A                  LEA EAX,[EDX + EBX*0x1]
00723B06  85 C9                     TEST ECX,ECX
00723B08  74 0E                     JZ 0x00723b18
00723B0A  83 C0 50                  ADD EAX,0x50
00723B0D  8B CE                     MOV ECX,ESI
00723B0F  50                        PUSH EAX
00723B10  E8 CB 24 FC FF            CALL 0x006e5fe0
00723B15  89 45 FC                  MOV dword ptr [EBP + -0x4],EAX
LAB_00723b18:
00723B18  8B 46 64                  MOV EAX,dword ptr [ESI + 0x64]
00723B1B  83 C3 70                  ADD EBX,0x70
00723B1E  C7 44 18 DC 00 00 00 00   MOV dword ptr [EAX + EBX*0x1 + -0x24],0x0
00723B26  8B 46 64                  MOV EAX,dword ptr [ESI + 0x64]
00723B29  83 3C 18 00               CMP dword ptr [EAX + EBX*0x1],0x0
00723B2D  75 BD                     JNZ 0x00723aec
LAB_00723b2f:
00723B2F  8D 4D D4                  LEA ECX,[EBP + -0x2c]
00723B32  C7 45 DC 01 00 00 00      MOV dword ptr [EBP + -0x24],0x1
00723B39  51                        PUSH ECX
00723B3A  8B CE                     MOV ECX,ESI
00723B3C  C7 45 E0 03 00 00 00      MOV dword ptr [EBP + -0x20],0x3
00723B43  C7 45 E4 15 00 00 00      MOV dword ptr [EBP + -0x1c],0x15
00723B4A  E8 91 24 FC FF            CALL 0x006e5fe0
00723B4F  85 C0                     TEST EAX,EAX
00723B51  75 14                     JNZ 0x00723b67
00723B53  8B 16                     MOV EDX,dword ptr [ESI]
00723B55  89 45 EC                  MOV dword ptr [EBP + -0x14],EAX
00723B58  8D 45 D4                  LEA EAX,[EBP + -0x2c]
00723B5B  8B CE                     MOV ECX,ESI
00723B5D  50                        PUSH EAX
00723B5E  C7 45 E4 60 00 00 00      MOV dword ptr [EBP + -0x1c],0x60
00723B65  FF 12                     CALL dword ptr [EDX]
LAB_00723b67:
00723B67  8B 8D 48 FF FF FF         MOV ECX,dword ptr [EBP + 0xffffff48]
00723B6D  33 C0                     XOR EAX,EAX
00723B6F  89 0D F8 8D 85 00         MOV dword ptr [0x00858df8],ECX
00723B75  5F                        POP EDI
00723B76  5E                        POP ESI
00723B77  5B                        POP EBX
00723B78  8B E5                     MOV ESP,EBP
00723B7A  5D                        POP EBP
00723B7B  C2 04 00                  RET 0x4
switchD_00723488::caseD_25:
00723B7E  8B 53 68                  MOV EDX,dword ptr [EBX + 0x68]
00723B81  89 57 14                  MOV dword ptr [EDI + 0x14],EDX
00723B84  E9 07 02 00 00            JMP 0x00723d90
switchD_00723488::caseD_20:
00723B89  8B 43 74                  MOV EAX,dword ptr [EBX + 0x74]
00723B8C  8B 57 14                  MOV EDX,dword ptr [EDI + 0x14]
00723B8F  25 00 00 00 FF            AND EAX,0xff000000
00723B94  0B C2                     OR EAX,EDX
00723B96  A9 FF FF FF 00            TEST EAX,0xffffff
00723B9B  89 43 74                  MOV dword ptr [EBX + 0x74],EAX
00723B9E  0F 85 EC 01 00 00         JNZ 0x00723d90
00723BA4  8B 43 64                  MOV EAX,dword ptr [EBX + 0x64]
00723BA7  83 38 00                  CMP dword ptr [EAX],0x0
00723BAA  0F 84 E0 01 00 00         JZ 0x00723d90
00723BB0  33 FF                     XOR EDI,EDI
00723BB2  33 F6                     XOR ESI,ESI
LAB_00723bb4:
00723BB4  39 7C 30 44               CMP dword ptr [EAX + ESI*0x1 + 0x44],EDI
00723BB8  74 1C                     JZ 0x00723bd6
00723BBA  89 7C 30 44               MOV dword ptr [EAX + ESI*0x1 + 0x44],EDI
00723BBE  8B 43 64                  MOV EAX,dword ptr [EBX + 0x64]
00723BC1  03 C6                     ADD EAX,ESI
00723BC3  39 78 60                  CMP dword ptr [EAX + 0x60],EDI
00723BC6  74 0E                     JZ 0x00723bd6
00723BC8  83 C0 50                  ADD EAX,0x50
00723BCB  8B CB                     MOV ECX,EBX
00723BCD  50                        PUSH EAX
00723BCE  E8 0D 24 FC FF            CALL 0x006e5fe0
00723BD3  89 45 FC                  MOV dword ptr [EBP + -0x4],EAX
LAB_00723bd6:
00723BD6  8B 43 64                  MOV EAX,dword ptr [EBX + 0x64]
00723BD9  83 C6 70                  ADD ESI,0x70
00723BDC  39 3C 30                  CMP dword ptr [EAX + ESI*0x1],EDI
00723BDF  75 D3                     JNZ 0x00723bb4
00723BE1  E9 AA 01 00 00            JMP 0x00723d90
switchD_00723488::caseD_21:
00723BE6  8B 4B 74                  MOV ECX,dword ptr [EBX + 0x74]
00723BE9  89 4F 14                  MOV dword ptr [EDI + 0x14],ECX
00723BEC  E9 9F 01 00 00            JMP 0x00723d90
switchD_00723488::caseD_23:
00723BF1  8B 53 64                  MOV EDX,dword ptr [EBX + 0x64]
00723BF4  33 C9                     XOR ECX,ECX
00723BF6  8B 02                     MOV EAX,dword ptr [EDX]
00723BF8  85 C0                     TEST EAX,EAX
00723BFA  0F 84 90 01 00 00         JZ 0x00723d90
00723C00  33 F6                     XOR ESI,ESI
00723C02  66 8B 77 14               MOV SI,word ptr [EDI + 0x14]
LAB_00723c06:
00723C06  3B C6                     CMP EAX,ESI
00723C08  74 10                     JZ 0x00723c1a
00723C0A  8B 42 70                  MOV EAX,dword ptr [EDX + 0x70]
00723C0D  83 C2 70                  ADD EDX,0x70
00723C10  41                        INC ECX
00723C11  85 C0                     TEST EAX,EAX
00723C13  75 F1                     JNZ 0x00723c06
00723C15  E9 76 01 00 00            JMP 0x00723d90
LAB_00723c1a:
00723C1A  8B 43 64                  MOV EAX,dword ptr [EBX + 0x64]
00723C1D  8D 34 CD 00 00 00 00      LEA ESI,[ECX*0x8 + 0x0]
00723C24  2B F1                     SUB ESI,ECX
00723C26  33 D2                     XOR EDX,EDX
00723C28  66 8B 57 16               MOV DX,word ptr [EDI + 0x16]
00723C2C  C1 E6 04                  SHL ESI,0x4
00723C2F  89 54 30 04               MOV dword ptr [EAX + ESI*0x1 + 0x4],EDX
00723C33  8B 43 64                  MOV EAX,dword ptr [EBX + 0x64]
00723C36  03 C6                     ADD EAX,ESI
00723C38  83 78 04 02               CMP dword ptr [EAX + 0x4],0x2
00723C3C  75 2A                     JNZ 0x00723c68
00723C3E  8B 48 44                  MOV ECX,dword ptr [EAX + 0x44]
00723C41  85 C9                     TEST ECX,ECX
00723C43  74 23                     JZ 0x00723c68
00723C45  C7 40 44 00 00 00 00      MOV dword ptr [EAX + 0x44],0x0
00723C4C  8B 4B 64                  MOV ECX,dword ptr [EBX + 0x64]
00723C4F  8D 04 31                  LEA EAX,[ECX + ESI*0x1]
00723C52  8B 4C 31 60               MOV ECX,dword ptr [ECX + ESI*0x1 + 0x60]
00723C56  85 C9                     TEST ECX,ECX
00723C58  74 0E                     JZ 0x00723c68
00723C5A  83 C0 50                  ADD EAX,0x50
00723C5D  8B CB                     MOV ECX,EBX
00723C5F  50                        PUSH EAX
00723C60  E8 7B 23 FC FF            CALL 0x006e5fe0
00723C65  89 45 FC                  MOV dword ptr [EBP + -0x4],EAX
LAB_00723c68:
00723C68  8B 43 64                  MOV EAX,dword ptr [EBX + 0x64]
00723C6B  8B 13                     MOV EDX,dword ptr [EBX]
00723C6D  03 C6                     ADD EAX,ESI
00723C6F  8B CB                     MOV ECX,EBX
00723C71  50                        PUSH EAX
00723C72  FF 52 04                  CALL dword ptr [EDX + 0x4]
00723C75  85 C0                     TEST EAX,EAX
00723C77  0F 84 13 01 00 00         JZ 0x00723d90
00723C7D  E9 07 01 00 00            JMP 0x00723d89
switchD_00723488::caseD_22:
00723C82  8B CB                     MOV ECX,EBX
00723C84  E8 67 F7 FF FF            CALL 0x007233f0
00723C89  85 C0                     TEST EAX,EAX
00723C8B  7C 2C                     JL 0x00723cb9
00723C8D  8B 53 64                  MOV EDX,dword ptr [EBX + 0x64]
00723C90  8D 0C C5 00 00 00 00      LEA ECX,[EAX*0x8 + 0x0]
00723C97  2B C8                     SUB ECX,EAX
00723C99  C1 E1 04                  SHL ECX,0x4
00723C9C  C7 44 0A 04 00 00 00 00   MOV dword ptr [EDX + ECX*0x1 + 0x4],0x0
00723CA4  8B 53 64                  MOV EDX,dword ptr [EBX + 0x64]
00723CA7  8B 03                     MOV EAX,dword ptr [EBX]
00723CA9  03 D1                     ADD EDX,ECX
00723CAB  52                        PUSH EDX
00723CAC  8B CB                     MOV ECX,EBX
00723CAE  FF 50 04                  CALL dword ptr [EAX + 0x4]
00723CB1  85 C0                     TEST EAX,EAX
00723CB3  0F 85 D0 00 00 00         JNZ 0x00723d89
LAB_00723cb9:
00723CB9  8B 47 14                  MOV EAX,dword ptr [EDI + 0x14]
00723CBC  8B CB                     MOV ECX,EBX
00723CBE  89 43 68                  MOV dword ptr [EBX + 0x68],EAX
00723CC1  E8 2A F7 FF FF            CALL 0x007233f0
00723CC6  85 C0                     TEST EAX,EAX
00723CC8  0F 8C C2 00 00 00         JL 0x00723d90
00723CCE  8B 4B 64                  MOV ECX,dword ptr [EBX + 0x64]
00723CD1  8D 34 C5 00 00 00 00      LEA ESI,[EAX*0x8 + 0x0]
00723CD8  2B F0                     SUB ESI,EAX
00723CDA  C1 E6 04                  SHL ESI,0x4
00723CDD  C7 44 31 04 01 00 00 00   MOV dword ptr [ECX + ESI*0x1 + 0x4],0x1
00723CE5  8B 43 64                  MOV EAX,dword ptr [EBX + 0x64]
00723CE8  8B 13                     MOV EDX,dword ptr [EBX]
00723CEA  03 C6                     ADD EAX,ESI
00723CEC  50                        PUSH EAX
00723CED  8B CB                     MOV ECX,EBX
00723CEF  FF 52 04                  CALL dword ptr [EDX + 0x4]
00723CF2  85 C0                     TEST EAX,EAX
00723CF4  0F 85 8F 00 00 00         JNZ 0x00723d89
00723CFA  66 39 47 18               CMP word ptr [EDI + 0x18],AX
00723CFE  0F 85 8C 00 00 00         JNZ 0x00723d90
00723D04  8B 4B 64                  MOV ECX,dword ptr [EBX + 0x64]
00723D07  8D 53 24                  LEA EDX,[EBX + 0x24]
00723D0A  03 CE                     ADD ECX,ESI
00723D0C  52                        PUSH EDX
00723D0D  89 4B 38                  MOV dword ptr [EBX + 0x38],ECX
00723D10  8B CB                     MOV ECX,EBX
00723D12  E8 09 23 FC FF            CALL 0x006e6020
00723D17  85 C0                     TEST EAX,EAX
00723D19  74 75                     JZ 0x00723d90
00723D1B  EB 6C                     JMP 0x00723d89
switchD_00723488::caseD_2d:
00723D1D  8B CB                     MOV ECX,EBX
00723D1F  E8 CC F6 FF FF            CALL 0x007233f0
00723D24  85 C0                     TEST EAX,EAX
00723D26  7C 28                     JL 0x00723d50
00723D28  8D 0C C5 00 00 00 00      LEA ECX,[EAX*0x8 + 0x0]
00723D2F  2B C8                     SUB ECX,EAX
00723D31  8B 43 64                  MOV EAX,dword ptr [EBX + 0x64]
00723D34  C1 E1 04                  SHL ECX,0x4
00723D37  C7 44 08 04 00 00 00 00   MOV dword ptr [EAX + ECX*0x1 + 0x4],0x0
00723D3F  8B 43 64                  MOV EAX,dword ptr [EBX + 0x64]
00723D42  8B 13                     MOV EDX,dword ptr [EBX]
00723D44  03 C1                     ADD EAX,ECX
00723D46  50                        PUSH EAX
00723D47  8B CB                     MOV ECX,EBX
00723D49  FF 52 04                  CALL dword ptr [EDX + 0x4]
00723D4C  85 C0                     TEST EAX,EAX
00723D4E  75 39                     JNZ 0x00723d89
LAB_00723d50:
00723D50  8B 4F 14                  MOV ECX,dword ptr [EDI + 0x14]
00723D53  89 4B 68                  MOV dword ptr [EBX + 0x68],ECX
00723D56  8B CB                     MOV ECX,EBX
00723D58  E8 93 F6 FF FF            CALL 0x007233f0
00723D5D  85 C0                     TEST EAX,EAX
00723D5F  7C 2F                     JL 0x00723d90
00723D61  8B 53 64                  MOV EDX,dword ptr [EBX + 0x64]
00723D64  8D 0C C5 00 00 00 00      LEA ECX,[EAX*0x8 + 0x0]
00723D6B  2B C8                     SUB ECX,EAX
00723D6D  C1 E1 04                  SHL ECX,0x4
00723D70  C7 44 0A 04 01 00 00 00   MOV dword ptr [EDX + ECX*0x1 + 0x4],0x1
00723D78  8B 53 64                  MOV EDX,dword ptr [EBX + 0x64]
00723D7B  8B 03                     MOV EAX,dword ptr [EBX]
00723D7D  03 D1                     ADD EDX,ECX
00723D7F  52                        PUSH EDX
00723D80  8B CB                     MOV ECX,EBX
00723D82  FF 50 04                  CALL dword ptr [EAX + 0x4]
00723D85  85 C0                     TEST EAX,EAX
00723D87  74 07                     JZ 0x00723d90
LAB_00723d89:
00723D89  C7 45 FC FF FF 00 00      MOV dword ptr [EBP + -0x4],0xffff
switchD_00723488::caseD_4:
00723D90  83 7B 74 01               CMP dword ptr [EBX + 0x74],0x1
00723D94  0F 85 9A 03 00 00         JNZ 0x00724134
00723D9A  8B 45 08                  MOV EAX,dword ptr [EBP + 0x8]
00723D9D  8B 40 10                  MOV EAX,dword ptr [EAX + 0x10]
00723DA0  83 F8 61                  CMP EAX,0x61
00723DA3  0F 87 8B 03 00 00         JA 0x00724134
00723DA9  33 C9                     XOR ECX,ECX
00723DAB  8A 88 64 42 72 00         MOV CL,byte ptr [EAX + 0x724264]
switchD_00723db1::switchD:
00723DB1  FF 24 8D 50 42 72 00      JMP dword ptr [ECX*0x4 + 0x724250]
switchD_00723db1::caseD_60:
00723DB8  8B 45 08                  MOV EAX,dword ptr [EBP + 0x8]
00723DBB  33 FF                     XOR EDI,EDI
00723DBD  33 C9                     XOR ECX,ECX
00723DBF  66 8B 78 18               MOV DI,word ptr [EAX + 0x18]
00723DC3  66 8B 48 1A               MOV CX,word ptr [EAX + 0x1a]
00723DC7  8B 43 64                  MOV EAX,dword ptr [EBX + 0x64]
00723DCA  89 4D F4                  MOV dword ptr [EBP + -0xc],ECX
00723DCD  C7 43 6C 00 00 00 00      MOV dword ptr [EBX + 0x6c],0x0
00723DD4  89 7D F8                  MOV dword ptr [EBP + -0x8],EDI
00723DD7  83 38 00                  CMP dword ptr [EAX],0x0
00723DDA  0F 84 54 03 00 00         JZ 0x00724134
00723DE0  33 F6                     XOR ESI,ESI
LAB_00723de2:
00723DE2  8B 4C 30 0C               MOV ECX,dword ptr [EAX + ESI*0x1 + 0xc]
00723DE6  3B F9                     CMP EDI,ECX
00723DE8  0F 8C FB 00 00 00         JL 0x00723ee9
00723DEE  8B 54 30 14               MOV EDX,dword ptr [EAX + ESI*0x1 + 0x14]
00723DF2  03 D1                     ADD EDX,ECX
00723DF4  3B FA                     CMP EDI,EDX
00723DF6  0F 8D ED 00 00 00         JGE 0x00723ee9
00723DFC  8B 54 30 10               MOV EDX,dword ptr [EAX + ESI*0x1 + 0x10]
00723E00  8B 4D F4                  MOV ECX,dword ptr [EBP + -0xc]
00723E03  3B CA                     CMP ECX,EDX
00723E05  0F 8C DE 00 00 00         JL 0x00723ee9
00723E0B  8B 4C 30 18               MOV ECX,dword ptr [EAX + ESI*0x1 + 0x18]
00723E0F  03 CA                     ADD ECX,EDX
00723E11  39 4D F4                  CMP dword ptr [EBP + -0xc],ECX
00723E14  0F 8D CF 00 00 00         JGE 0x00723ee9
00723E1A  8B 4C 30 1C               MOV ECX,dword ptr [EAX + ESI*0x1 + 0x1c]
00723E1E  85 C9                     TEST ECX,ECX
00723E20  74 2B                     JZ 0x00723e4d
00723E22  83 F9 FF                  CMP ECX,-0x1
00723E25  74 26                     JZ 0x00723e4d
00723E27  8B 7D F4                  MOV EDI,dword ptr [EBP + -0xc]
00723E2A  2B FA                     SUB EDI,EDX
00723E2C  8B 55 F8                  MOV EDX,dword ptr [EBP + -0x8]
00723E2F  57                        PUSH EDI
00723E30  8B 7C 30 0C               MOV EDI,dword ptr [EAX + ESI*0x1 + 0xc]
00723E34  8B 44 30 20               MOV EAX,dword ptr [EAX + ESI*0x1 + 0x20]
00723E38  2B D7                     SUB EDX,EDI
00723E3A  52                        PUSH EDX
00723E3B  50                        PUSH EAX
00723E3C  51                        PUSH ECX
00723E3D  E8 7E 17 F9 FF            CALL 0x006b55c0
00723E42  8B 7D F8                  MOV EDI,dword ptr [EBP + -0x8]
00723E45  85 C0                     TEST EAX,EAX
00723E47  0F 84 9C 00 00 00         JZ 0x00723ee9
LAB_00723e4d:
00723E4D  8B 53 64                  MOV EDX,dword ptr [EBX + 0x64]
00723E50  B9 01 00 00 00            MOV ECX,0x1
00723E55  89 4B 6C                  MOV dword ptr [EBX + 0x6c],ECX
00723E58  8D 04 32                  LEA EAX,[EDX + ESI*0x1]
00723E5B  8B 54 32 04               MOV EDX,dword ptr [EDX + ESI*0x1 + 0x4]
00723E5F  83 FA 02                  CMP EDX,0x2
00723E62  0F 84 F3 00 00 00         JZ 0x00723f5b
00723E68  8B 50 34                  MOV EDX,dword ptr [EAX + 0x34]
00723E6B  85 D2                     TEST EDX,EDX
00723E6D  74 39                     JZ 0x00723ea8
00723E6F  8B 50 48                  MOV EDX,dword ptr [EAX + 0x48]
00723E72  85 D2                     TEST EDX,EDX
00723E74  74 1D                     JZ 0x00723e93
00723E76  8B 48 4C                  MOV ECX,dword ptr [EAX + 0x4c]
00723E79  85 C9                     TEST ECX,ECX
00723E7B  75 07                     JNZ 0x00723e84
00723E7D  C7 40 44 00 00 00 00      MOV dword ptr [EAX + 0x44],0x0
LAB_00723e84:
00723E84  FF 15 DC BE 85 00         CALL dword ptr [0x0085bedc]
00723E8A  8B 4B 64                  MOV ECX,dword ptr [EBX + 0x64]
00723E8D  89 44 31 4C               MOV dword ptr [ECX + ESI*0x1 + 0x4c],EAX
00723E91  EB 15                     JMP 0x00723ea8
LAB_00723e93:
00723E93  89 48 44                  MOV dword ptr [EAX + 0x44],ECX
00723E96  8B 53 64                  MOV EDX,dword ptr [EBX + 0x64]
00723E99  8B CB                     MOV ECX,EBX
00723E9B  8D 44 32 24               LEA EAX,[EDX + ESI*0x1 + 0x24]
00723E9F  50                        PUSH EAX
00723EA0  E8 3B 21 FC FF            CALL 0x006e5fe0
00723EA5  89 45 FC                  MOV dword ptr [EBP + -0x4],EAX
LAB_00723ea8:
00723EA8  8B 43 70                  MOV EAX,dword ptr [EBX + 0x70]
00723EAB  85 C0                     TEST EAX,EAX
00723EAD  0F 84 A8 00 00 00         JZ 0x00723f5b
00723EB3  8B 4B 64                  MOV ECX,dword ptr [EBX + 0x64]
00723EB6  8B 14 31                  MOV EDX,dword ptr [ECX + ESI*0x1]
00723EB9  8D 04 31                  LEA EAX,[ECX + ESI*0x1]
00723EBC  33 C9                     XOR ECX,ECX
00723EBE  3B 53 68                  CMP EDX,dword ptr [EBX + 0x68]
00723EC1  0F 94 C1                  SETZ CL
00723EC4  89 48 08                  MOV dword ptr [EAX + 0x8],ECX
00723EC7  8B 53 64                  MOV EDX,dword ptr [EBX + 0x64]
00723ECA  C7 44 32 04 03 00 00 00   MOV dword ptr [EDX + ESI*0x1 + 0x4],0x3
00723ED2  8B 4B 64                  MOV ECX,dword ptr [EBX + 0x64]
00723ED5  8B 03                     MOV EAX,dword ptr [EBX]
00723ED7  03 CE                     ADD ECX,ESI
00723ED9  51                        PUSH ECX
00723EDA  8B CB                     MOV ECX,EBX
00723EDC  FF 50 04                  CALL dword ptr [EAX + 0x4]
00723EDF  85 C0                     TEST EAX,EAX
00723EE1  0F 85 6F 01 00 00         JNZ 0x00724056
00723EE7  EB 72                     JMP 0x00723f5b
LAB_00723ee9:
00723EE9  8B 53 64                  MOV EDX,dword ptr [EBX + 0x64]
00723EEC  8B 4C 32 44               MOV ECX,dword ptr [EDX + ESI*0x1 + 0x44]
00723EF0  8D 44 32 44               LEA EAX,[EDX + ESI*0x1 + 0x44]
00723EF4  85 C9                     TEST ECX,ECX
00723EF6  74 20                     JZ 0x00723f18
00723EF8  C7 00 00 00 00 00         MOV dword ptr [EAX],0x0
00723EFE  8B 43 64                  MOV EAX,dword ptr [EBX + 0x64]
00723F01  03 C6                     ADD EAX,ESI
00723F03  8B 48 60                  MOV ECX,dword ptr [EAX + 0x60]
00723F06  85 C9                     TEST ECX,ECX
00723F08  74 0E                     JZ 0x00723f18
00723F0A  83 C0 50                  ADD EAX,0x50
00723F0D  8B CB                     MOV ECX,EBX
00723F0F  50                        PUSH EAX
00723F10  E8 CB 20 FC FF            CALL 0x006e5fe0
00723F15  89 45 FC                  MOV dword ptr [EBP + -0x4],EAX
LAB_00723f18:
00723F18  8B 4B 64                  MOV ECX,dword ptr [EBX + 0x64]
00723F1B  C7 44 31 4C 00 00 00 00   MOV dword ptr [ECX + ESI*0x1 + 0x4c],0x0
00723F23  8B 43 70                  MOV EAX,dword ptr [EBX + 0x70]
00723F26  85 C0                     TEST EAX,EAX
00723F28  74 31                     JZ 0x00723f5b
00723F2A  8B 53 64                  MOV EDX,dword ptr [EBX + 0x64]
00723F2D  8B 4C 32 04               MOV ECX,dword ptr [EDX + ESI*0x1 + 0x4]
00723F31  8D 04 32                  LEA EAX,[EDX + ESI*0x1]
00723F34  83 F9 03                  CMP ECX,0x3
00723F37  75 22                     JNZ 0x00723f5b
00723F39  8B 08                     MOV ECX,dword ptr [EAX]
00723F3B  33 D2                     XOR EDX,EDX
00723F3D  3B 4B 68                  CMP ECX,dword ptr [EBX + 0x68]
00723F40  0F 94 C2                  SETZ DL
00723F43  89 50 04                  MOV dword ptr [EAX + 0x4],EDX
00723F46  8B 4B 64                  MOV ECX,dword ptr [EBX + 0x64]
00723F49  8B 03                     MOV EAX,dword ptr [EBX]
00723F4B  03 CE                     ADD ECX,ESI
00723F4D  51                        PUSH ECX
00723F4E  8B CB                     MOV ECX,EBX
00723F50  FF 50 04                  CALL dword ptr [EAX + 0x4]
00723F53  85 C0                     TEST EAX,EAX
00723F55  0F 85 FB 00 00 00         JNZ 0x00724056
LAB_00723f5b:
00723F5B  8B 43 64                  MOV EAX,dword ptr [EBX + 0x64]
00723F5E  83 C6 70                  ADD ESI,0x70
00723F61  83 3C 30 00               CMP dword ptr [EAX + ESI*0x1],0x0
00723F65  0F 85 77 FE FF FF         JNZ 0x00723de2
00723F6B  E9 C4 01 00 00            JMP 0x00724134
switchD_00723db1::caseD_61:
00723F70  8B 45 08                  MOV EAX,dword ptr [EBP + 0x8]
00723F73  33 FF                     XOR EDI,EDI
00723F75  33 C9                     XOR ECX,ECX
00723F77  C7 45 D0 00 00 00 00      MOV dword ptr [EBP + -0x30],0x0
00723F7E  66 8B 78 18               MOV DI,word ptr [EAX + 0x18]
00723F82  66 8B 48 1A               MOV CX,word ptr [EAX + 0x1a]
00723F86  8B 43 64                  MOV EAX,dword ptr [EBX + 0x64]
00723F89  89 4D F4                  MOV dword ptr [EBP + -0xc],ECX
00723F8C  89 7D F8                  MOV dword ptr [EBP + -0x8],EDI
00723F8F  83 38 00                  CMP dword ptr [EAX],0x0
00723F92  0F 84 9C 01 00 00         JZ 0x00724134
00723F98  33 F6                     XOR ESI,ESI
LAB_00723f9a:
00723F9A  8B 4C 06 0C               MOV ECX,dword ptr [ESI + EAX*0x1 + 0xc]
00723F9E  3B F9                     CMP EDI,ECX
00723FA0  7C 65                     JL 0x00724007
00723FA2  8B 54 06 14               MOV EDX,dword ptr [ESI + EAX*0x1 + 0x14]
00723FA6  03 D1                     ADD EDX,ECX
00723FA8  3B FA                     CMP EDI,EDX
00723FAA  7D 5B                     JGE 0x00724007
00723FAC  8B 54 06 10               MOV EDX,dword ptr [ESI + EAX*0x1 + 0x10]
00723FB0  8B 4D F4                  MOV ECX,dword ptr [EBP + -0xc]
00723FB3  3B CA                     CMP ECX,EDX
00723FB5  7C 50                     JL 0x00724007
00723FB7  8B 4C 06 18               MOV ECX,dword ptr [ESI + EAX*0x1 + 0x18]
00723FBB  03 CA                     ADD ECX,EDX
00723FBD  39 4D F4                  CMP dword ptr [EBP + -0xc],ECX
00723FC0  7D 45                     JGE 0x00724007
00723FC2  8B 4C 06 1C               MOV ECX,dword ptr [ESI + EAX*0x1 + 0x1c]
00723FC6  85 C9                     TEST ECX,ECX
00723FC8  74 27                     JZ 0x00723ff1
00723FCA  83 F9 FF                  CMP ECX,-0x1
00723FCD  74 22                     JZ 0x00723ff1
00723FCF  8B 7D F4                  MOV EDI,dword ptr [EBP + -0xc]
00723FD2  2B FA                     SUB EDI,EDX
00723FD4  8B 55 F8                  MOV EDX,dword ptr [EBP + -0x8]
00723FD7  57                        PUSH EDI
00723FD8  8B 7C 06 0C               MOV EDI,dword ptr [ESI + EAX*0x1 + 0xc]
00723FDC  8B 44 06 20               MOV EAX,dword ptr [ESI + EAX*0x1 + 0x20]
00723FE0  2B D7                     SUB EDX,EDI
00723FE2  52                        PUSH EDX
00723FE3  50                        PUSH EAX
00723FE4  51                        PUSH ECX
00723FE5  E8 D6 15 F9 FF            CALL 0x006b55c0
00723FEA  8B 7D F8                  MOV EDI,dword ptr [EBP + -0x8]
00723FED  85 C0                     TEST EAX,EAX
00723FEF  74 16                     JZ 0x00724007
LAB_00723ff1:
00723FF1  8B 4B 64                  MOV ECX,dword ptr [EBX + 0x64]
00723FF4  8B 53 68                  MOV EDX,dword ptr [EBX + 0x68]
00723FF7  8D 04 31                  LEA EAX,[ECX + ESI*0x1]
00723FFA  8B 0C 31                  MOV ECX,dword ptr [ECX + ESI*0x1]
00723FFD  3B D1                     CMP EDX,ECX
00723FFF  74 06                     JZ 0x00724007
00724001  83 78 04 02               CMP dword ptr [EAX + 0x4],0x2
00724005  75 18                     JNZ 0x0072401f
LAB_00724007:
00724007  8B 45 D0                  MOV EAX,dword ptr [EBP + -0x30]
0072400A  83 C6 70                  ADD ESI,0x70
0072400D  40                        INC EAX
0072400E  89 45 D0                  MOV dword ptr [EBP + -0x30],EAX
00724011  8B 43 64                  MOV EAX,dword ptr [EBX + 0x64]
00724014  83 3C 06 00               CMP dword ptr [ESI + EAX*0x1],0x0
00724018  75 80                     JNZ 0x00723f9a
0072401A  E9 15 01 00 00            JMP 0x00724134
LAB_0072401f:
0072401F  8B CB                     MOV ECX,EBX
00724021  E8 CA F3 FF FF            CALL 0x007233f0
00724026  85 C0                     TEST EAX,EAX
00724028  0F 8C 06 01 00 00         JL 0x00724134
0072402E  8D 0C C5 00 00 00 00      LEA ECX,[EAX*0x8 + 0x0]
00724035  2B C8                     SUB ECX,EAX
00724037  8B 43 64                  MOV EAX,dword ptr [EBX + 0x64]
0072403A  C1 E1 04                  SHL ECX,0x4
0072403D  C7 44 01 04 00 00 00 00   MOV dword ptr [ECX + EAX*0x1 + 0x4],0x0
00724045  8B 7B 64                  MOV EDI,dword ptr [EBX + 0x64]
00724048  8B 13                     MOV EDX,dword ptr [EBX]
0072404A  03 CF                     ADD ECX,EDI
0072404C  51                        PUSH ECX
0072404D  8B CB                     MOV ECX,EBX
0072404F  FF 52 04                  CALL dword ptr [EDX + 0x4]
00724052  85 C0                     TEST EAX,EAX
00724054  74 0C                     JZ 0x00724062
LAB_00724056:
00724056  C7 45 FC FF FF 00 00      MOV dword ptr [EBP + -0x4],0xffff
0072405D  E9 D2 00 00 00            JMP 0x00724134
LAB_00724062:
00724062  8B 45 D0                  MOV EAX,dword ptr [EBP + -0x30]
00724065  8D 34 C5 00 00 00 00      LEA ESI,[EAX*0x8 + 0x0]
0072406C  2B F0                     SUB ESI,EAX
0072406E  8B 43 64                  MOV EAX,dword ptr [EBX + 0x64]
00724071  C1 E6 04                  SHL ESI,0x4
00724074  03 C6                     ADD EAX,ESI
00724076  8B 08                     MOV ECX,dword ptr [EAX]
00724078  89 4B 68                  MOV dword ptr [EBX + 0x68],ECX
0072407B  C7 40 04 01 00 00 00      MOV dword ptr [EAX + 0x4],0x1
00724082  8B 43 64                  MOV EAX,dword ptr [EBX + 0x64]
00724085  8B 13                     MOV EDX,dword ptr [EBX]
00724087  03 C6                     ADD EAX,ESI
00724089  8B CB                     MOV ECX,EBX
0072408B  50                        PUSH EAX
0072408C  FF 52 04                  CALL dword ptr [EDX + 0x4]
0072408F  85 C0                     TEST EAX,EAX
00724091  74 0C                     JZ 0x0072409f
00724093  C7 45 FC FF FF 00 00      MOV dword ptr [EBP + -0x4],0xffff
0072409A  E9 95 00 00 00            JMP 0x00724134
LAB_0072409f:
0072409F  8B 4B 64                  MOV ECX,dword ptr [EBX + 0x64]
007240A2  8D 53 24                  LEA EDX,[EBX + 0x24]
007240A5  03 CE                     ADD ECX,ESI
007240A7  52                        PUSH EDX
007240A8  89 4B 38                  MOV dword ptr [EBX + 0x38],ECX
007240AB  8B CB                     MOV ECX,EBX
007240AD  E8 6E 1F FC FF            CALL 0x006e6020
007240B2  85 C0                     TEST EAX,EAX
007240B4  74 7E                     JZ 0x00724134
007240B6  C7 45 FC FF FF 00 00      MOV dword ptr [EBP + -0x4],0xffff
007240BD  EB 75                     JMP 0x00724134
switchD_00723db1::caseD_2b:
007240BF  8B 4D 08                  MOV ECX,dword ptr [EBP + 0x8]
007240C2  66 8B 43 6C               MOV AX,word ptr [EBX + 0x6c]
007240C6  66 89 41 14               MOV word ptr [ECX + 0x14],AX
007240CA  EB 68                     JMP 0x00724134
switchD_00723db1::caseD_0:
007240CC  8B 43 64                  MOV EAX,dword ptr [EBX + 0x64]
007240CF  83 38 00                  CMP dword ptr [EAX],0x0
007240D2  74 60                     JZ 0x00724134
007240D4  33 F6                     XOR ESI,ESI
LAB_007240d6:
007240D6  8B 4C 06 48               MOV ECX,dword ptr [ESI + EAX*0x1 + 0x48]
007240DA  85 C9                     TEST ECX,ECX
007240DC  74 4A                     JZ 0x00724128
007240DE  8B 4C 06 4C               MOV ECX,dword ptr [ESI + EAX*0x1 + 0x4c]
007240E2  85 C9                     TEST ECX,ECX
007240E4  74 42                     JZ 0x00724128
007240E6  8B 53 64                  MOV EDX,dword ptr [EBX + 0x64]
007240E9  8D 3C 16                  LEA EDI,[ESI + EDX*0x1]
007240EC  FF 15 DC BE 85 00         CALL dword ptr [0x0085bedc]
007240F2  8B 4F 4C                  MOV ECX,dword ptr [EDI + 0x4c]
007240F5  8B 57 48                  MOV EDX,dword ptr [EDI + 0x48]
007240F8  03 CA                     ADD ECX,EDX
007240FA  3B C1                     CMP EAX,ECX
007240FC  72 2A                     JC 0x00724128
007240FE  8B 47 44                  MOV EAX,dword ptr [EDI + 0x44]
00724101  85 C0                     TEST EAX,EAX
00724103  75 23                     JNZ 0x00724128
00724105  C7 47 44 01 00 00 00      MOV dword ptr [EDI + 0x44],0x1
0072410C  8B 53 64                  MOV EDX,dword ptr [EBX + 0x64]
0072410F  8B 4C 16 34               MOV ECX,dword ptr [ESI + EDX*0x1 + 0x34]
00724113  8D 04 16                  LEA EAX,[ESI + EDX*0x1]
00724116  85 C9                     TEST ECX,ECX
00724118  74 0E                     JZ 0x00724128
0072411A  83 C0 24                  ADD EAX,0x24
0072411D  8B CB                     MOV ECX,EBX
0072411F  50                        PUSH EAX
00724120  E8 BB 1E FC FF            CALL 0x006e5fe0
00724125  89 45 FC                  MOV dword ptr [EBP + -0x4],EAX
LAB_00724128:
00724128  8B 43 64                  MOV EAX,dword ptr [EBX + 0x64]
0072412B  83 C6 70                  ADD ESI,0x70
0072412E  83 3C 06 00               CMP dword ptr [ESI + EAX*0x1],0x0
00724132  75 A2                     JNZ 0x007240d6
switchD_00723db1::caseD_1:
00724134  8B 45 FC                  MOV EAX,dword ptr [EBP + -0x4]
00724137  85 C0                     TEST EAX,EAX
00724139  74 17                     JZ 0x00724152
0072413B  8B 0D 7C D7 7E 00         MOV ECX,dword ptr [0x007ed77c]
00724141  68 5F 01 00 00            PUSH 0x15f
00724146  68 AC 0B 7F 00            PUSH 0x7f0bac
0072414B  51                        PUSH ECX
0072414C  50                        PUSH EAX
0072414D  E8 EE 1C F8 FF            CALL 0x006a5e40
LAB_00724152:
00724152  8B 55 08                  MOV EDX,dword ptr [EBP + 0x8]
00724155  8B CB                     MOV ECX,EBX
00724157  52                        PUSH EDX
00724158  E8 73 1E FC FF            CALL 0x006e5fd0
0072415D  8B F0                     MOV ESI,EAX
0072415F  85 F6                     TEST ESI,ESI
00724161  89 75 FC                  MOV dword ptr [EBP + -0x4],ESI
00724164  74 16                     JZ 0x0072417c
00724166  A1 7C D7 7E 00            MOV EAX,[0x007ed77c]
0072416B  68 61 01 00 00            PUSH 0x161
00724170  68 AC 0B 7F 00            PUSH 0x7f0bac
00724175  50                        PUSH EAX
00724176  56                        PUSH ESI
00724177  E8 C4 1C F8 FF            CALL 0x006a5e40
LAB_0072417c:
0072417C  8B 8D 48 FF FF FF         MOV ECX,dword ptr [EBP + 0xffffff48]
00724182  8B C6                     MOV EAX,ESI
00724184  89 0D F8 8D 85 00         MOV dword ptr [0x00858df8],ECX
0072418A  5F                        POP EDI
0072418B  5E                        POP ESI
0072418C  5B                        POP EBX
0072418D  8B E5                     MOV ESP,EBP
0072418F  5D                        POP EBP
00724190  C2 04 00                  RET 0x4
LAB_00724193:
00724193  8B 95 48 FF FF FF         MOV EDX,dword ptr [EBP + 0xffffff48]
00724199  68 8C 0B 7F 00            PUSH 0x7f0b8c
0072419E  68 CC 4C 7A 00            PUSH 0x7a4ccc
007241A3  50                        PUSH EAX
007241A4  6A 00                     PUSH 0x0
007241A6  68 63 01 00 00            PUSH 0x163
007241AB  68 AC 0B 7F 00            PUSH 0x7f0bac
007241B0  89 15 F8 8D 85 00         MOV dword ptr [0x00858df8],EDX
007241B6  E8 15 93 F8 FF            CALL 0x006ad4d0
007241BB  83 C4 18                  ADD ESP,0x18
007241BE  85 C0                     TEST EAX,EAX
007241C0  74 01                     JZ 0x007241c3
007241C2  CC                        INT3
LAB_007241c3:
007241C3  68 64 01 00 00            PUSH 0x164
007241C8  68 AC 0B 7F 00            PUSH 0x7f0bac
007241CD  6A 00                     PUSH 0x0
007241CF  68 FF FF 00 00            PUSH 0xffff
007241D4  E8 67 1C F8 FF            CALL 0x006a5e40
007241D9  5F                        POP EDI
007241DA  5E                        POP ESI
007241DB  B8 FF FF 00 00            MOV EAX,0xffff
007241E0  5B                        POP EBX
007241E1  8B E5                     MOV ESP,EBP
007241E3  5D                        POP EBP
007241E4  C2 04 00                  RET 0x4
